(lp0
(lp1
(dp2
(I0
I2
I0
I1
I0
tp3
(dp4
S'RRRG'
p5
I0
sS'GRRR'
p6
I0
sS'RRRR'
p7
I0
sS'RGRR'
p8
I0
sS'RRGR'
p9
I0
ss(I2
I0
I1
I1
I1
tp10
(dp11
g5
I0
sg6
I0
sg7
I0
sg8
I0
sg9
I0
ss(I1
I2
I1
I2
I0
tp12
(dp13
g5
I0
sg6
I0
sg7
I0
sg8
I0
sg9
I0
ss(I2
I2
I2
I0
I0
tp14
(dp15
g5
I0
sg6
I0
sg7
I0
sg8
I0
sg9
I0
ss(I2
I0
I2
I0
I1
tp16
(dp17
g5
I0
sg6
I0
sg7
I0
sg8
I0
sg9
I0
ss(I1
I0
I0
I2
I0
tp18
(dp19
g5
I0
sg6
I0
sg7
I0
sg8
I0
sg9
I0
ss(I2
I0
I0
I1
I1
tp20
(dp21
g5
F1.0866397656254594
sg6
F6.162118741077771
sg7
F-35.734184844977214
sg8
F-5.346780660289019
sg9
I0
ss(I2
I1
I1
I1
I0
tp22
(dp23
g5
I0
sg6
I0
sg7
I0
sg8
I0
sg9
I0
ss(I0
I2
I1
I2
I1
tp24
(dp25
g5
I0
sg6
I0
sg7
I0
sg8
I0
sg9
I0
ss(I2
I1
I1
I2
I0
tp26
(dp27
g5
I0
sg6
I0
sg7
I0
sg8
I0
sg9
I0
ss(I1
I0
I1
I1
I0
tp28
(dp29
g5
I0
sg6
I0
sg7
I0
sg8
I0
sg9
I0
ss(I2
I0
I1
I2
I1
tp30
(dp31
g5
I0
sg6
I0
sg7
I0
sg8
I0
sg9
I0
ss(I2
I2
I2
I1
I0
tp32
(dp33
g5
I0
sg6
I0
sg7
I0
sg8
I0
sg9
I0
ss(I2
I1
I0
I1
I0
tp34
(dp35
g5
I0
sg6
I0
sg7
I0
sg8
I0
sg9
I0
ss(I2
I2
I1
I0
I0
tp36
(dp37
g5
I0
sg6
I0
sg7
I0
sg8
I0
sg9
I0
ss(I0
I1
I2
I2
I0
tp38
(dp39
g5
I0
sg6
I0
sg7
I0
sg8
I0
sg9
I0
ss(I2
I2
I2
I2
I1
tp40
(dp41
g5
I0
sg6
I0
sg7
I0
sg8
I0
sg9
I0
ss(I1
I0
I2
I2
I1
tp42
(dp43
g5
I0
sg6
I0
sg7
I0
sg8
I0
sg9
I0
ss(I0
I2
I1
I1
I1
tp44
(dp45
g5
I0
sg6
I0
sg7
I0
sg8
I0
sg9
I0
ss(I2
I0
I0
I2
I1
tp46
(dp47
g5
F4.275686660912443
sg6
F4.000180974579895
sg7
F-36.52054455492219
sg8
F-7.644794358561911
sg9
I0
ss(I2
I1
I1
I1
I1
tp48
(dp49
g5
I0
sg6
I0
sg7
I0
sg8
I0
sg9
I0
ss(I1
I1
I0
I1
I0
tp50
(dp51
g5
I0
sg6
I0
sg7
I0
sg8
I0
sg9
I0
ss(I0
I2
I2
I0
I1
tp52
(dp53
g5
I0
sg6
I0
sg7
I0
sg8
I0
sg9
I0
ss(I2
I2
I1
I2
I1
tp54
(dp55
g5
I0
sg6
I0
sg7
I0
sg8
I0
sg9
I0
ss(I1
I0
I1
I2
I1
tp56
(dp57
g5
I0
sg6
I0
sg7
I0
sg8
I0
sg9
I0
ss(I0
I2
I0
I1
I1
tp58
(dp59
g5
F1.1364716227617584
sg6
F-5.808089896827706
sg7
F-35.99282630481139
sg8
F6.318055414761542
sg9
I0
ss(I1
I1
I1
I2
I0
tp60
(dp61
g5
I0
sg6
I0
sg7
I0
sg8
I0
sg9
I0
ss(I1
I0
I0
I1
I1
tp62
(dp63
g5
F2.006269344343883
sg6
F2.3330893782413233
sg7
F-33.980411911785424
sg8
F-3.537528386947476
sg9
I0
ss(I2
I0
I2
I0
I0
tp64
(dp65
g5
I0
sg6
I0
sg7
I0
sg8
I0
sg9
I0
ss(I0
I0
I2
I1
I0
tp66
(dp67
g5
I0
sg6
I0
sg7
I0
sg8
I0
sg9
I0
ss(I1
I0
I0
I2
I1
tp68
(dp69
g5
F6.030067186009522
sg6
F0.013686877457491255
sg7
F-35.80161551771921
sg8
F-5.913039561270512
sg9
I0
ss(I2
I2
I0
I0
I1
tp70
(dp71
g5
F-4.625
sg6
F4.001036627009471
sg7
F-16.625
sg8
F3.6996612548828125
sg9
I0
ss(I1
I0
I1
I1
I1
tp72
(dp73
g5
I0
sg6
I0
sg7
I0
sg8
I0
sg9
I0
ss(I2
I2
I2
I1
I1
tp74
(dp75
g5
I0
sg6
I0
sg7
I0
sg8
I0
sg9
I0
ss(I2
I2
I1
I0
I1
tp76
(dp77
g5
I0
sg6
I0
sg7
I0
sg8
I0
sg9
I0
ss(I0
I0
I2
I0
I1
tp78
(dp79
g5
I0
sg6
I0
sg7
I0
sg8
I0
sg9
I0
ss(I1
I2
I2
I2
I1
tp80
(dp81
g5
I0
sg6
I0
sg7
I0
sg8
I0
sg9
I0
ss(I0
I1
I1
I0
I1
tp82
(dp83
g5
I0
sg6
I0
sg7
I0
sg8
I0
sg9
I0
ss(I1
I2
I0
I0
I0
tp84
(dp85
g5
I0
sg6
I0
sg7
I0
sg8
I0
sg9
I0
ss(I0
I1
I2
I1
I1
tp86
(dp87
g5
I0
sg6
I0
sg7
I0
sg8
I0
sg9
I0
ss(I1
I1
I1
I1
I1
tp88
(dp89
g5
I0
sg6
I0
sg7
I0
sg8
I0
sg9
I0
ss(I0
I1
I2
I2
I1
tp90
(dp91
g5
I0
sg6
I0
sg7
I0
sg8
I0
sg9
I0
ss(I1
I0
I2
I2
I0
tp92
(dp93
g5
I0
sg6
I0
sg7
I0
sg8
I0
sg9
I0
ss(I1
I1
I0
I2
I1
tp94
(dp95
g5
F4.03598557349521
sg6
F-1.9977694707186926
sg7
F-37.16491134884423
sg8
F-1.945531896406876
sg9
I0
ss(I1
I1
I0
I1
I1
tp96
(dp97
g5
F0.15091757912653492
sg6
F0.3579934934984078
sg7
F-35.26198932972561
sg8
F0.4962908996366814
sg9
I0
ss(I2
I0
I2
I1
I1
tp98
(dp99
g5
I0
sg6
I0
sg7
I0
sg8
I0
sg9
I0
ss(I0
I2
I2
I0
I0
tp100
(dp101
g5
I0
sg6
I0
sg7
I0
sg8
I0
sg9
I0
ss(I1
I0
I1
I2
I0
tp102
(dp103
g5
I0
sg6
I0
sg7
I0
sg8
I0
sg9
I0
ss(I1
I1
I1
I2
I1
tp104
(dp105
g5
I0
sg6
I0
sg7
I0
sg8
I0
sg9
I0
ss(I2
I0
I0
I1
I0
tp106
(dp107
g5
I0
sg6
I0
sg7
I0
sg8
I0
sg9
I0
ss(I0
I0
I2
I2
I1
tp108
(dp109
g5
I0
sg6
I0
sg7
I0
sg8
I0
sg9
I0
ss(I1
I0
I0
I1
I0
tp110
(dp111
g5
I0
sg6
I0
sg7
I0
sg8
I0
sg9
I0
ss(I0
I0
I2
I1
I1
tp112
(dp113
g5
I0
sg6
I0
sg7
I0
sg8
I0
sg9
I0
ss(I1
I1
I0
I0
I0
tp114
(dp115
g5
I0
sg6
I0
sg7
I0
sg8
I0
sg9
I0
ss(I2
I1
I2
I0
I0
tp116
(dp117
g5
I0
sg6
I0
sg7
I0
sg8
I0
sg9
I0
ss(I2
I2
I2
I2
I0
tp118
(dp119
g5
I0
sg6
I0
sg7
I0
sg8
I0
sg9
I0
ss(I1
I2
I2
I0
I1
tp120
(dp121
g5
I0
sg6
I0
sg7
I0
sg8
I0
sg9
I0
ss(I0
I0
I1
I0
I0
tp122
(dp123
g5
I0
sg6
I0
sg7
I0
sg8
I0
sg9
I0
ss(I1
I2
I1
I0
I1
tp124
(dp125
g5
I0
sg6
I0
sg7
I0
sg8
I0
sg9
I0
ss(I0
I1
I1
I0
I0
tp126
(dp127
g5
I0
sg6
I0
sg7
I0
sg8
I0
sg9
I0
ss(I1
I2
I2
I1
I1
tp128
(dp129
g5
I0
sg6
I0
sg7
I0
sg8
I0
sg9
I0
ss(I2
I1
I1
I0
I0
tp130
(dp131
g5
I0
sg6
I0
sg7
I0
sg8
I0
sg9
I0
ss(I1
I2
I0
I0
I1
tp132
(dp133
g5
F-2.4603842924864825
sg6
F1.285373292161314
sg7
F-31.00303201666374
sg8
F6.056440328551505
sg9
I0
ss(I1
I2
I2
I2
I0
tp134
(dp135
g5
I0
sg6
I0
sg7
I0
sg8
I0
sg9
I0
ss(I0
I1
I2
I1
I0
tp136
(dp137
g5
I0
sg6
I0
sg7
I0
sg8
I0
sg9
I0
ss(I2
I0
I1
I0
I0
tp138
(dp139
g5
I0
sg6
I0
sg7
I0
sg8
I0
sg9
I0
ss(I1
I1
I1
I1
I0
tp140
(dp141
g5
I0
sg6
I0
sg7
I0
sg8
I0
sg9
I0
ss(I2
I1
I2
I2
I0
tp142
(dp143
g5
I0
sg6
I0
sg7
I0
sg8
I0
sg9
I0
ss(I2
I1
I2
I1
I1
tp144
(dp145
g5
I0
sg6
I0
sg7
I0
sg8
I0
sg9
I0
ss(I2
I0
I2
I1
I0
tp146
(dp147
g5
I0
sg6
I0
sg7
I0
sg8
I0
sg9
I0
ss(I1
I1
I0
I2
I0
tp148
(dp149
g5
I0
sg6
I0
sg7
I0
sg8
I0
sg9
I0
ss(I2
I1
I2
I0
I1
tp150
(dp151
g5
I0
sg6
I0
sg7
I0
sg8
I0
sg9
I0
ss(I2
I1
I1
I0
I1
tp152
(dp153
g5
I0
sg6
I0
sg7
I0
sg8
I0
sg9
I0
ss(I1
I1
I2
I0
I0
tp154
(dp155
g5
I0
sg6
I0
sg7
I0
sg8
I0
sg9
I0
ss(I0
I0
I1
I0
I1
tp156
(dp157
g5
I0
sg6
I0
sg7
I0
sg8
I0
sg9
I0
ss(I0
I0
I2
I2
I0
tp158
(dp159
g5
I0
sg6
I0
sg7
I0
sg8
I0
sg9
I0
ss(I1
I1
I0
I0
I1
tp160
(dp161
g5
F-2.643691384829263
sg6
F2.0377354322306855
sg7
F-32.65370119730112
sg8
F2.4704604883289103
sg9
I0
ss(I0
I1
I0
I0
I1
tp162
(dp163
g5
F1.7873985196473137
sg6
F0.7255570054731053
sg7
F-31.078767825567972
sg8
F5.02272302899316
sg9
I0
ss(I1
I2
I2
I0
I0
tp164
(dp165
g5
I0
sg6
I0
sg7
I0
sg8
I0
sg9
I0
ss(I2
I1
I0
I0
I0
tp166
(dp167
g5
I0
sg6
I0
sg7
I0
sg8
I0
sg9
I0
ss(I2
I1
I2
I2
I1
tp168
(dp169
g5
I0
sg6
I0
sg7
I0
sg8
I0
sg9
I0
ss(I1
I2
I1
I0
I0
tp170
(dp171
g5
I0
sg6
I0
sg7
I0
sg8
I0
sg9
I0
ss(I2
I0
I0
I0
I1
tp172
(dp173
g5
F-1.9913281694274203
sg6
F8.001781296351915
sg7
F-30.19820241616523
sg8
F-2.596722741548237
sg9
I0
ss(I1
I2
I2
I1
I0
tp174
(dp175
g5
I0
sg6
I0
sg7
I0
sg8
I0
sg9
I0
ss(I0
I2
I2
I1
I0
tp176
(dp177
g5
I0
sg6
I0
sg7
I0
sg8
I0
sg9
I0
ss(I2
I0
I1
I0
I1
tp178
(dp179
g5
I0
sg6
I0
sg7
I0
sg8
I0
sg9
I0
ss(I2
I1
I2
I1
I0
tp180
(dp181
g5
I0
sg6
I0
sg7
I0
sg8
I0
sg9
I0
ss(I1
I0
I0
I0
I0
tp182
(dp183
g5
I0
sg6
I0
sg7
I0
sg8
I0
sg9
I0
ss(I0
I0
I0
I2
I0
tp184
(dp185
g5
I0
sg6
I0
sg7
I0
sg8
I0
sg9
I0
ss(I2
I2
I1
I2
I0
tp186
(dp187
g5
I0
sg6
I0
sg7
I0
sg8
I0
sg9
I0
ss(I0
I2
I1
I1
I0
tp188
(dp189
g5
I0
sg6
I0
sg7
I0
sg8
I0
sg9
I0
ss(I2
I2
I0
I1
I0
tp190
(dp191
g5
I0
sg6
I0
sg7
I0
sg8
I0
sg9
I0
ss(I1
I1
I2
I0
I1
tp192
(dp193
g5
I0
sg6
I0
sg7
I0
sg8
I0
sg9
I0
ss(I2
I1
I0
I0
I1
tp194
(dp195
g5
F-4.378193706836208
sg6
F7.496230339195983
sg7
F-33.82768376443204
sg8
F0.1637165449509479
sg9
I0
ss(I0
I1
I0
I2
I1
tp196
(dp197
g5
F6.149973008612859
sg6
F-5.9577889430089686
sg7
F-35.79607137763444
sg8
F0.002436116988114241
sg9
I0
ss(I0
I1
I1
I1
I0
tp198
(dp199
g5
I0
sg6
I0
sg7
I0
sg8
I0
sg9
I0
ss(I0
I1
I0
I0
I0
tp200
(dp201
g5
I0
sg6
I0
sg7
I0
sg8
I0
sg9
I0
ss(I0
I2
I0
I0
I1
tp202
(dp203
g5
F1.5338079593331133
sg6
F-1.303032306571291
sg7
F-22.00475480887048
sg8
F8.286012156370251
sg9
I0
ss(I0
I1
I2
I0
I0
tp204
(dp205
g5
I0
sg6
I0
sg7
I0
sg8
I0
sg9
I0
ss(I1
I1
I1
I0
I0
tp206
(dp207
g5
I0
sg6
I0
sg7
I0
sg8
I0
sg9
I0
ss(I1
I0
I2
I1
I1
tp208
(dp209
g5
I0
sg6
I0
sg7
I0
sg8
I0
sg9
I0
ss(I2
I0
I0
I0
I0
tp210
(dp211
g5
I0
sg6
I0
sg7
I0
sg8
I0
sg9
I0
ss(I1
I1
I2
I1
I0
tp212
(dp213
g5
I0
sg6
I0
sg7
I0
sg8
I0
sg9
I0
ss(I1
I0
I2
I0
I0
tp214
(dp215
g5
I0
sg6
I0
sg7
I0
sg8
I0
sg9
I0
ss(I1
I0
I1
I0
I1
tp216
(dp217
g5
I0
sg6
I0
sg7
I0
sg8
I0
sg9
I0
ss(I0
I2
I2
I1
I1
tp218
(dp219
g5
I0
sg6
I0
sg7
I0
sg8
I0
sg9
I0
ss(I2
I2
I0
I2
I1
tp220
(dp221
g5
F6.470098603251339e-07
sg6
F0.0008620252603575024
sg7
F-41.99950794313175
sg8
F0.010142749361907327
sg9
I0
ss(I0
I2
I0
I2
I0
tp222
(dp223
g5
I0
sg6
I0
sg7
I0
sg8
I0
sg9
I0
ss(I2
I2
I1
I1
I1
tp224
(dp225
g5
I0
sg6
I0
sg7
I0
sg8
I0
sg9
I0
ss(I1
I0
I0
I0
I1
tp226
(dp227
g5
F-1.1548406685277008
sg6
F4.297883222767741
sg7
F-31.699945906261483
sg8
F1.977472080026206
sg9
I0
ss(I2
I1
I0
I2
I0
tp228
(dp229
g5
I0
sg6
I0
sg7
I0
sg8
I0
sg9
I0
ss(I0
I2
I2
I2
I0
tp230
(dp231
g5
I0
sg6
I0
sg7
I0
sg8
I0
sg9
I0
ss(I0
I2
I2
I2
I1
tp232
(dp233
g5
I0
sg6
I0
sg7
I0
sg8
I0
sg9
I0
ss(I2
I2
I0
I1
I1
tp234
(dp235
g5
F-3.9931027724024535
sg6
F2.0000000000905107
sg7
F-39.99931998816953
sg8
F2.000000058023325
sg9
I0
ss(I2
I0
I2
I2
I1
tp236
(dp237
g5
I0
sg6
I0
sg7
I0
sg8
I0
sg9
I0
ss(I0
I1
I0
I1
I1
tp238
(dp239
g5
F2.688876482236443
sg6
F-3.726571537682604
sg7
F-33.74508190601243
sg8
F2.0064396382867855
sg9
I0
ss(I1
I2
I1
I1
I0
tp240
(dp241
g5
I0
sg6
I0
sg7
I0
sg8
I0
sg9
I0
ss(I0
I1
I0
I2
I0
tp242
(dp243
g5
I0
sg6
I0
sg7
I0
sg8
I0
sg9
I0
ss(I0
I1
I1
I2
I1
tp244
(dp245
g5
I0
sg6
I0
sg7
I0
sg8
I0
sg9
I0
ss(I1
I1
I2
I2
I1
tp246
(dp247
g5
I0
sg6
I0
sg7
I0
sg8
I0
sg9
I0
ss(I0
I1
I1
I1
I1
tp248
(dp249
g5
I0
sg6
I0
sg7
I0
sg8
I0
sg9
I0
ss(I1
I2
I0
I2
I0
tp250
(dp251
g5
I0
sg6
I0
sg7
I0
sg8
I0
sg9
I0
ss(I0
I0
I2
I0
I0
tp252
(dp253
g5
I0
sg6
I0
sg7
I0
sg8
I0
sg9
I0
ss(I0
I2
I0
I0
I0
tp254
(dp255
g5
I0
sg6
I0
sg7
I0
sg8
I0
sg9
I0
ss(I0
I1
I2
I0
I1
tp256
(dp257
g5
I0
sg6
I0
sg7
I0
sg8
I0
sg9
I0
ss(I1
I1
I1
I0
I1
tp258
(dp259
g5
I0
sg6
I0
sg7
I0
sg8
I0
sg9
I0
ss(I0
I0
I0
I2
I1
tp260
(dp261
g5
F8.00056530101442
sg6
F-3.987949959386178
sg7
F-33.60991948898746
sg8
F-3.841124258460577
sg9
I0
ss(I1
I0
I2
I1
I0
tp262
(dp263
g5
I0
sg6
I0
sg7
I0
sg8
I0
sg9
I0
ss(I1
I1
I2
I1
I1
tp264
(dp265
g5
I0
sg6
I0
sg7
I0
sg8
I0
sg9
I0
ss(I0
I0
I1
I1
I1
tp266
(dp267
g5
I0
sg6
I0
sg7
I0
sg8
I0
sg9
I0
ss(I1
I0
I1
I0
I0
tp268
(dp269
g5
I0
sg6
I0
sg7
I0
sg8
I0
sg9
I0
ss(I0
I0
I1
I2
I1
tp270
(dp271
g5
I0
sg6
I0
sg7
I0
sg8
I0
sg9
I0
ss(I2
I0
I2
I2
I0
tp272
(dp273
g5
I0
sg6
I0
sg7
I0
sg8
I0
sg9
I0
ss(I0
I2
I0
I2
I1
tp274
(dp275
g5
F4.0000001687104465
sg6
F-7.607455319470297
sg7
F-37.99752818480868
sg8
F4.000426629028205
sg9
I0
ss(I0
I0
I0
I0
I1
tp276
(dp277
g5
F1.6793474981500573
sg6
F3.3110450189844687
sg7
F-28.880683707033846
sg8
F1.9656645941358994
sg9
I0
ss(I2
I2
I1
I1
I0
tp278
(dp279
g5
I0
sg6
I0
sg7
I0
sg8
I0
sg9
I0
ss(I0
I0
I0
I0
I0
tp280
(dp281
g5
I0
sg6
I0
sg7
I0
sg8
I0
sg9
I0
ss(I2
I2
I0
I2
I0
tp282
(dp283
g5
I0
sg6
I0
sg7
I0
sg8
I0
sg9
I0
ss(I1
I2
I0
I1
I1
tp284
(dp285
g5
F-1.9429418360583608
sg6
F-1.9727547011491668
sg7
F-37.99997790918883
sg8
F4.003203589045597
sg9
I0
ss(I2
I0
I1
I1
I0
tp286
(dp287
g5
I0
sg6
I0
sg7
I0
sg8
I0
sg9
I0
ss(I0
I1
I0
I1
I0
tp288
(dp289
g5
I0
sg6
I0
sg7
I0
sg8
I0
sg9
I0
ss(I1
I2
I1
I2
I1
tp290
(dp291
g5
I0
sg6
I0
sg7
I0
sg8
I0
sg9
I0
ss(I1
I2
I1
I1
I1
tp292
(dp293
g5
I0
sg6
I0
sg7
I0
sg8
I0
sg9
I0
ss(I0
I2
I1
I0
I0
tp294
(dp295
g5
I0
sg6
I0
sg7
I0
sg8
I0
sg9
I0
ss(I0
I1
I1
I2
I0
tp296
(dp297
g5
I0
sg6
I0
sg7
I0
sg8
I0
sg9
I0
ss(I0
I0
I0
I1
I0
tp298
(dp299
g5
I0
sg6
I0
sg7
I0
sg8
I0
sg9
I0
ss(I1
I1
I2
I2
I0
tp300
(dp301
g5
I0
sg6
I0
sg7
I0
sg8
I0
sg9
I0
ss(I1
I2
I0
I2
I1
tp302
(dp303
g5
F2.0143996264715094
sg6
F-3.996479284358416
sg7
F-39.999848211373646
sg8
F2.126117994457249
sg9
I0
ss(I2
I1
I1
I2
I1
tp304
(dp305
g5
I0
sg6
I0
sg7
I0
sg8
I0
sg9
I0
ss(I2
I0
I1
I2
I0
tp306
(dp307
g5
I0
sg6
I0
sg7
I0
sg8
I0
sg9
I0
ss(I2
I1
I0
I1
I1
tp308
(dp309
g5
F-0.74355712047044
sg6
F4.661340516370035
sg7
F-37.999999712552764
sg8
F-1.9709702423943791
sg9
I0
ss(I1
I2
I0
I1
I0
tp310
(dp311
g5
I0
sg6
I0
sg7
I0
sg8
I0
sg9
I0
ss(I2
I2
I2
I0
I1
tp312
(dp313
g5
I0
sg6
I0
sg7
I0
sg8
I0
sg9
I0
ss(I2
I1
I0
I2
I1
tp314
(dp315
g5
F2.06378426197971
sg6
F2.1704480467379175
sg7
F-39.972790120841736
sg8
F-2.499606225644171
sg9
I0
ss(I0
I2
I1
I2
I0
tp316
(dp317
g5
I0
sg6
I0
sg7
I0
sg8
I0
sg9
I0
ss(I0
I0
I1
I1
I0
tp318
(dp319
g5
I0
sg6
I0
sg7
I0
sg8
I0
sg9
I0
ss(I2
I2
I0
I0
I0
tp320
(dp321
g5
I0
sg6
I0
sg7
I0
sg8
I0
sg9
I0
ss(I0
I2
I1
I0
I1
tp322
(dp323
g5
I0
sg6
I0
sg7
I0
sg8
I0
sg9
I0
ss(I2
I0
I0
I2
I0
tp324
(dp325
g5
I0
sg6
I0
sg7
I0
sg8
I0
sg9
I0
ss(I0
I0
I0
I1
I1
tp326
(dp327
g5
F4.459435718169709
sg6
F-1.9976048977268026
sg7
F-31.62724679018553
sg8
F-1.997932024068329
sg9
I0
ss(I0
I0
I1
I2
I0
tp328
(dp329
g5
I0
sg6
I0
sg7
I0
sg8
I0
sg9
I0
ss(I1
I0
I2
I0
I1
tp330
(dp331
g5
I0
sg6
I0
sg7
I0
sg8
I0
sg9
I0
ssa(dp332
(I0
I2
I0
I1
I0
tp333
(dp334
g5
I0
sg6
I0
sg7
I0
sg8
I0
sg9
I0
ss(I2
I0
I1
I1
I1
tp335
(dp336
g5
F-1.675277142054842
sg6
F5.331862578680859
sg7
F-37.47066152935349
sg8
I0
sg9
F-1.9928063415566286
ss(I1
I2
I1
I2
I0
tp337
(dp338
g5
I0
sg6
I0
sg7
I0
sg8
I0
sg9
I0
ss(I2
I2
I2
I0
I0
tp339
(dp340
g5
I0
sg6
I0
sg7
I0
sg8
I0
sg9
I0
ss(I2
I0
I2
I0
I1
tp341
(dp342
g5
F-7.8389471635521275
sg6
F4.446149083297655
sg7
F-36.37904687752673
sg8
I0
sg9
F4.045192744038996
ss(I1
I0
I0
I2
I0
tp343
(dp344
g5
I0
sg6
I0
sg7
I0
sg8
I0
sg9
I0
ss(I2
I0
I0
I1
I1
tp345
(dp346
g5
F0.027446716984109082
sg6
F7.5244832417604925
sg7
F-35.936209845446236
sg8
I0
sg9
F-5.170061479678591
ss(I2
I1
I1
I1
I0
tp347
(dp348
g5
I0
sg6
I0
sg7
I0
sg8
I0
sg9
I0
ss(I0
I2
I1
I2
I1
tp349
(dp350
g5
I0
sg6
I0
sg7
I0
sg8
I0
sg9
I0
ss(I2
I1
I1
I2
I0
tp351
(dp352
g5
I0
sg6
I0
sg7
I0
sg8
I0
sg9
I0
ss(I1
I0
I1
I1
I0
tp353
(dp354
g5
I0
sg6
I0
sg7
I0
sg8
I0
sg9
I0
ss(I2
I0
I1
I2
I1
tp355
(dp356
g5
F2.001599519709062
sg6
F2.000862374860495
sg7
F-39.53592607645734
sg8
I0
sg9
F-3.9614904711870693
ss(I2
I2
I2
I1
I0
tp357
(dp358
g5
I0
sg6
I0
sg7
I0
sg8
I0
sg9
I0
ss(I2
I1
I0
I1
I0
tp359
(dp360
g5
I0
sg6
I0
sg7
I0
sg8
I0
sg9
I0
ss(I2
I2
I1
I0
I0
tp361
(dp362
g5
I0
sg6
I0
sg7
I0
sg8
I0
sg9
I0
ss(I0
I1
I2
I2
I0
tp363
(dp364
g5
I0
sg6
I0
sg7
I0
sg8
I0
sg9
I0
ss(I2
I2
I2
I2
I1
tp365
(dp366
g5
I0
sg6
I0
sg7
I0
sg8
I0
sg9
I0
ss(I1
I0
I2
I2
I1
tp367
(dp368
g5
F2.039745147563825
sg6
F-3.5082526307776742
sg7
F-39.09124423560051
sg8
I0
sg9
F2.3249966135960105
ss(I0
I2
I1
I1
I1
tp369
(dp370
g5
I0
sg6
I0
sg7
I0
sg8
I0
sg9
I0
ss(I2
I0
I0
I2
I1
tp371
(dp372
g5
F4.119757798623964
sg6
F4.506608111022616
sg7
F-36.70683491041765
sg8
I0
sg9
F-7.580054214874151
ss(I2
I1
I1
I1
I1
tp373
(dp374
g5
I0
sg6
I0
sg7
I0
sg8
I0
sg9
I0
ss(I1
I1
I0
I1
I0
tp375
(dp376
g5
I0
sg6
I0
sg7
I0
sg8
I0
sg9
I0
ss(I0
I2
I2
I0
I1
tp377
(dp378
g5
I0
sg6
I0
sg7
I0
sg8
I0
sg9
I0
ss(I2
I2
I1
I2
I1
tp379
(dp380
g5
I0
sg6
I0
sg7
I0
sg8
I0
sg9
I0
ss(I1
I0
I1
I2
I1
tp381
(dp382
g5
F4.004975137610957
sg6
F-0.8545571903439899
sg7
F-37.87065098365464
sg8
I0
sg9
F-1.5316890213257164
ss(I0
I2
I0
I1
I1
tp383
(dp384
g5
I0
sg6
I0
sg7
I0
sg8
I0
sg9
I0
ss(I1
I1
I1
I2
I0
tp385
(dp386
g5
I0
sg6
I0
sg7
I0
sg8
I0
sg9
I0
ss(I1
I0
I0
I1
I1
tp387
(dp388
g5
F2.1677594204143995
sg6
F2.7471425172604143
sg7
F-32.862329081626264
sg8
I0
sg9
F-3.7763837394160826
ss(I2
I0
I2
I0
I0
tp389
(dp390
g5
I0
sg6
I0
sg7
I0
sg8
I0
sg9
I0
ss(I0
I0
I2
I1
I0
tp391
(dp392
g5
I0
sg6
I0
sg7
I0
sg8
I0
sg9
I0
ss(I1
I0
I0
I2
I1
tp393
(dp394
g5
F6.00017168368531
sg6
F1.4049513094977055
sg7
F-35.820297275223986
sg8
I0
sg9
F-4.8036612832595855
ss(I2
I2
I0
I0
I1
tp395
(dp396
g5
I0
sg6
I0
sg7
I0
sg8
I0
sg9
I0
ss(I1
I0
I1
I1
I1
tp397
(dp398
g5
F0.07626363580046266
sg6
F1.8929131259861696
sg7
F-35.39212077814342
sg8
I0
sg9
F1.231242076560783
ss(I2
I2
I2
I1
I1
tp399
(dp400
g5
I0
sg6
I0
sg7
I0
sg8
I0
sg9
I0
ss(I2
I2
I1
I0
I1
tp401
(dp402
g5
I0
sg6
I0
sg7
I0
sg8
I0
sg9
I0
ss(I0
I0
I2
I0
I1
tp403
(dp404
g5
F-3.8857692281539116
sg6
F-3.1519879222177547
sg7
F-32.57042447167706
sg8
I0
sg9
F8.805806307974008
ss(I1
I2
I2
I2
I1
tp405
(dp406
g5
I0
sg6
I0
sg7
I0
sg8
I0
sg9
I0
ss(I0
I1
I1
I0
I1
tp407
(dp408
g5
I0
sg6
I0
sg7
I0
sg8
I0
sg9
I0
ss(I1
I2
I0
I0
I0
tp409
(dp410
g5
I0
sg6
I0
sg7
I0
sg8
I0
sg9
I0
ss(I0
I1
I2
I1
I1
tp411
(dp412
g5
I0
sg6
I0
sg7
I0
sg8
I0
sg9
I0
ss(I1
I1
I1
I1
I1
tp413
(dp414
g5
I0
sg6
I0
sg7
I0
sg8
I0
sg9
I0
ss(I0
I1
I2
I2
I1
tp415
(dp416
g5
I0
sg6
I0
sg7
I0
sg8
I0
sg9
I0
ss(I1
I0
I2
I2
I0
tp417
(dp418
g5
I0
sg6
I0
sg7
I0
sg8
I0
sg9
I0
ss(I1
I1
I0
I2
I1
tp419
(dp420
g5
I0
sg6
I0
sg7
I0
sg8
I0
sg9
I0
ss(I1
I1
I0
I1
I1
tp421
(dp422
g5
I0
sg6
I0
sg7
I0
sg8
I0
sg9
I0
ss(I2
I0
I2
I1
I1
tp423
(dp424
g5
F-3.999590977122948
sg6
F2.0233378190154228
sg7
F-39.98801378656606
sg8
I0
sg9
F2.010696774615761
ss(I0
I2
I2
I0
I0
tp425
(dp426
g5
I0
sg6
I0
sg7
I0
sg8
I0
sg9
I0
ss(I1
I0
I1
I2
I0
tp427
(dp428
g5
I0
sg6
I0
sg7
I0
sg8
I0
sg9
I0
ss(I1
I1
I1
I2
I1
tp429
(dp430
g5
I0
sg6
I0
sg7
I0
sg8
I0
sg9
I0
ss(I2
I0
I0
I1
I0
tp431
(dp432
g5
I0
sg6
I0
sg7
I0
sg8
I0
sg9
I0
ss(I0
I0
I2
I2
I1
tp433
(dp434
g5
F4.179457868805764
sg6
F-7.717343043811416
sg7
F-36.81280083160934
sg8
I0
sg9
F4.001512680046126
ss(I1
I0
I0
I1
I0
tp435
(dp436
g5
I0
sg6
I0
sg7
I0
sg8
I0
sg9
I0
ss(I0
I0
I2
I1
I1
tp437
(dp438
g5
F0.768559903237853
sg6
F-4.358653240732913
sg7
F-35.6650230292671
sg8
I0
sg9
F7.596669987333774
ss(I1
I1
I0
I0
I0
tp439
(dp440
g5
I0
sg6
I0
sg7
I0
sg8
I0
sg9
I0
ss(I2
I1
I2
I0
I0
tp441
(dp442
g5
I0
sg6
I0
sg7
I0
sg8
I0
sg9
I0
ss(I2
I2
I2
I2
I0
tp443
(dp444
g5
I0
sg6
I0
sg7
I0
sg8
I0
sg9
I0
ss(I1
I2
I2
I0
I1
tp445
(dp446
g5
I0
sg6
I0
sg7
I0
sg8
I0
sg9
I0
ss(I0
I0
I1
I0
I0
tp447
(dp448
g5
I0
sg6
I0
sg7
I0
sg8
I0
sg9
I0
ss(I1
I2
I1
I0
I1
tp449
(dp450
g5
I0
sg6
I0
sg7
I0
sg8
I0
sg9
I0
ss(I0
I1
I1
I0
I0
tp451
(dp452
g5
I0
sg6
I0
sg7
I0
sg8
I0
sg9
I0
ss(I1
I2
I2
I1
I1
tp453
(dp454
g5
I0
sg6
I0
sg7
I0
sg8
I0
sg9
I0
ss(I2
I1
I1
I0
I0
tp455
(dp456
g5
I0
sg6
I0
sg7
I0
sg8
I0
sg9
I0
ss(I1
I2
I0
I0
I1
tp457
(dp458
g5
I0
sg6
I0
sg7
I0
sg8
I0
sg9
I0
ss(I1
I2
I2
I2
I0
tp459
(dp460
g5
I0
sg6
I0
sg7
I0
sg8
I0
sg9
I0
ss(I0
I1
I2
I1
I0
tp461
(dp462
g5
I0
sg6
I0
sg7
I0
sg8
I0
sg9
I0
ss(I2
I0
I1
I0
I0
tp463
(dp464
g5
I0
sg6
I0
sg7
I0
sg8
I0
sg9
I0
ss(I1
I1
I1
I1
I0
tp465
(dp466
g5
I0
sg6
I0
sg7
I0
sg8
I0
sg9
I0
ss(I2
I1
I2
I2
I0
tp467
(dp468
g5
I0
sg6
I0
sg7
I0
sg8
I0
sg9
I0
ss(I2
I1
I2
I1
I1
tp469
(dp470
g5
I0
sg6
I0
sg7
I0
sg8
I0
sg9
I0
ss(I2
I0
I2
I1
I0
tp471
(dp472
g5
I0
sg6
I0
sg7
I0
sg8
I0
sg9
I0
ss(I1
I1
I0
I2
I0
tp473
(dp474
g5
I0
sg6
I0
sg7
I0
sg8
I0
sg9
I0
ss(I2
I1
I2
I0
I1
tp475
(dp476
g5
I0
sg6
I0
sg7
I0
sg8
I0
sg9
I0
ss(I2
I1
I1
I0
I1
tp477
(dp478
g5
I0
sg6
I0
sg7
I0
sg8
I0
sg9
I0
ss(I1
I1
I2
I0
I0
tp479
(dp480
g5
I0
sg6
I0
sg7
I0
sg8
I0
sg9
I0
ss(I0
I0
I1
I0
I1
tp481
(dp482
g5
F-1.2128511382483453
sg6
F1.2454920537116307
sg7
F-30.62118741285742
sg8
I0
sg9
F4.2151211258954575
ss(I0
I0
I2
I2
I0
tp483
(dp484
g5
I0
sg6
I0
sg7
I0
sg8
I0
sg9
I0
ss(I1
I1
I0
I0
I1
tp485
(dp486
g5
I0
sg6
I0
sg7
I0
sg8
I0
sg9
I0
ss(I0
I1
I0
I0
I1
tp487
(dp488
g5
I0
sg6
I0
sg7
I0
sg8
I0
sg9
I0
ss(I1
I2
I2
I0
I0
tp489
(dp490
g5
I0
sg6
I0
sg7
I0
sg8
I0
sg9
I0
ss(I2
I1
I0
I0
I0
tp491
(dp492
g5
I0
sg6
I0
sg7
I0
sg8
I0
sg9
I0
ss(I2
I1
I2
I2
I1
tp493
(dp494
g5
I0
sg6
I0
sg7
I0
sg8
I0
sg9
I0
ss(I1
I2
I1
I0
I0
tp495
(dp496
g5
I0
sg6
I0
sg7
I0
sg8
I0
sg9
I0
ss(I2
I0
I0
I0
I1
tp497
(dp498
g5
F-2.2656454841024414
sg6
F8.11481399079452
sg7
F-33.91148312369839
sg8
I0
sg9
F-3.245334627549056
ss(I1
I2
I2
I1
I0
tp499
(dp500
g5
I0
sg6
I0
sg7
I0
sg8
I0
sg9
I0
ss(I0
I2
I2
I1
I0
tp501
(dp502
g5
I0
sg6
I0
sg7
I0
sg8
I0
sg9
I0
ss(I2
I0
I1
I0
I1
tp503
(dp504
g5
F-5.632268225386475
sg6
F6.2164661101597645
sg7
F-34.9857535971552
sg8
I0
sg9
F0.020668946068738557
ss(I2
I1
I2
I1
I0
tp505
(dp506
g5
I0
sg6
I0
sg7
I0
sg8
I0
sg9
I0
ss(I1
I0
I0
I0
I0
tp507
(dp508
g5
I0
sg6
I0
sg7
I0
sg8
I0
sg9
I0
ss(I0
I0
I0
I2
I0
tp509
(dp510
g5
I0
sg6
I0
sg7
I0
sg8
I0
sg9
I0
ss(I2
I2
I1
I2
I0
tp511
(dp512
g5
I0
sg6
I0
sg7
I0
sg8
I0
sg9
I0
ss(I0
I2
I1
I1
I0
tp513
(dp514
g5
I0
sg6
I0
sg7
I0
sg8
I0
sg9
I0
ss(I2
I2
I0
I1
I0
tp515
(dp516
g5
I0
sg6
I0
sg7
I0
sg8
I0
sg9
I0
ss(I1
I1
I2
I0
I1
tp517
(dp518
g5
I0
sg6
I0
sg7
I0
sg8
I0
sg9
I0
ss(I2
I1
I0
I0
I1
tp519
(dp520
g5
I0
sg6
I0
sg7
I0
sg8
I0
sg9
I0
ss(I0
I1
I0
I2
I1
tp521
(dp522
g5
I0
sg6
I0
sg7
I0
sg8
I0
sg9
I0
ss(I0
I1
I1
I1
I0
tp523
(dp524
g5
I0
sg6
I0
sg7
I0
sg8
I0
sg9
I0
ss(I0
I1
I0
I0
I0
tp525
(dp526
g5
I0
sg6
I0
sg7
I0
sg8
I0
sg9
I0
ss(I0
I2
I0
I0
I1
tp527
(dp528
g5
I0
sg6
I0
sg7
I0
sg8
I0
sg9
I0
ss(I0
I1
I2
I0
I0
tp529
(dp530
g5
I0
sg6
I0
sg7
I0
sg8
I0
sg9
I0
ss(I1
I1
I1
I0
I0
tp531
(dp532
g5
I0
sg6
I0
sg7
I0
sg8
I0
sg9
I0
ss(I1
I0
I2
I1
I1
tp533
(dp534
g5
F-1.337927101596713
sg6
F-1.9557866083841917
sg7
F-37.11120164591337
sg8
I0
sg9
F4.218639536981153
ss(I2
I0
I0
I0
I0
tp535
(dp536
g5
I0
sg6
I0
sg7
I0
sg8
I0
sg9
I0
ss(I1
I1
I2
I1
I0
tp537
(dp538
g5
I0
sg6
I0
sg7
I0
sg8
I0
sg9
I0
ss(I1
I0
I2
I0
I0
tp539
(dp540
g5
I0
sg6
I0
sg7
I0
sg8
I0
sg9
I0
ss(I1
I0
I1
I0
I1
tp541
(dp542
g5
F-3.6267960478644223
sg6
F2.507102726749012
sg7
F-32.99132605446059
sg8
I0
sg9
F2.3926888110800264
ss(I0
I2
I2
I1
I1
tp543
(dp544
g5
I0
sg6
I0
sg7
I0
sg8
I0
sg9
I0
ss(I2
I2
I0
I2
I1
tp545
(dp546
g5
I0
sg6
I0
sg7
I0
sg8
I0
sg9
I0
ss(I0
I2
I0
I2
I0
tp547
(dp548
g5
I0
sg6
I0
sg7
I0
sg8
I0
sg9
I0
ss(I2
I2
I1
I1
I1
tp549
(dp550
g5
I0
sg6
I0
sg7
I0
sg8
I0
sg9
I0
ss(I1
I0
I0
I0
I1
tp551
(dp552
g5
F-1.5633855745820036
sg6
F4.102155544476734
sg7
F-31.20402328137503
sg8
I0
sg9
F-1.2949970166971794
ss(I2
I1
I0
I2
I0
tp553
(dp554
g5
I0
sg6
I0
sg7
I0
sg8
I0
sg9
I0
ss(I0
I2
I2
I2
I0
tp555
(dp556
g5
I0
sg6
I0
sg7
I0
sg8
I0
sg9
I0
ss(I0
I2
I2
I2
I1
tp557
(dp558
g5
I0
sg6
I0
sg7
I0
sg8
I0
sg9
I0
ss(I2
I2
I0
I1
I1
tp559
(dp560
g5
I0
sg6
I0
sg7
I0
sg8
I0
sg9
I0
ss(I2
I0
I2
I2
I1
tp561
(dp562
g5
F0.6450419093517726
sg6
F0.057925815405205805
sg7
F-41.78915794816334
sg8
I0
sg9
F0.18596544636195161
ss(I0
I1
I0
I1
I1
tp563
(dp564
g5
I0
sg6
I0
sg7
I0
sg8
I0
sg9
I0
ss(I1
I2
I1
I1
I0
tp565
(dp566
g5
I0
sg6
I0
sg7
I0
sg8
I0
sg9
I0
ss(I0
I1
I0
I2
I0
tp567
(dp568
g5
I0
sg6
I0
sg7
I0
sg8
I0
sg9
I0
ss(I0
I1
I1
I2
I1
tp569
(dp570
g5
I0
sg6
I0
sg7
I0
sg8
I0
sg9
I0
ss(I1
I1
I2
I2
I1
tp571
(dp572
g5
I0
sg6
I0
sg7
I0
sg8
I0
sg9
I0
ss(I0
I1
I1
I1
I1
tp573
(dp574
g5
I0
sg6
I0
sg7
I0
sg8
I0
sg9
I0
ss(I1
I2
I0
I2
I0
tp575
(dp576
g5
I0
sg6
I0
sg7
I0
sg8
I0
sg9
I0
ss(I0
I0
I2
I0
I0
tp577
(dp578
g5
I0
sg6
I0
sg7
I0
sg8
I0
sg9
I0
ss(I0
I2
I0
I0
I0
tp579
(dp580
g5
I0
sg6
I0
sg7
I0
sg8
I0
sg9
I0
ss(I0
I1
I2
I0
I1
tp581
(dp582
g5
I0
sg6
I0
sg7
I0
sg8
I0
sg9
I0
ss(I1
I1
I1
I0
I1
tp583
(dp584
g5
I0
sg6
I0
sg7
I0
sg8
I0
sg9
I0
ss(I0
I0
I0
I2
I1
tp585
(dp586
g5
F8.132586095941184
sg6
F-3.2880859375
sg7
F-31.27970274147028
sg8
I0
sg9
F-3.8097652322230178
ss(I1
I0
I2
I1
I0
tp587
(dp588
g5
I0
sg6
I0
sg7
I0
sg8
I0
sg9
I0
ss(I1
I1
I2
I1
I1
tp589
(dp590
g5
I0
sg6
I0
sg7
I0
sg8
I0
sg9
I0
ss(I0
I0
I1
I1
I1
tp591
(dp592
g5
F2.127034247406792
sg6
F-3.634637374904433
sg7
F-33.334702850708965
sg8
I0
sg9
F3.9275836607857406
ss(I1
I0
I1
I0
I0
tp593
(dp594
g5
I0
sg6
I0
sg7
I0
sg8
I0
sg9
I0
ss(I0
I0
I1
I2
I1
tp595
(dp596
g5
F6.551034350444491
sg6
F-4.747380480629941
sg7
F-35.8310525667507
sg8
I0
sg9
F0.003873493174926086
ss(I2
I0
I2
I2
I0
tp597
(dp598
g5
I0
sg6
I0
sg7
I0
sg8
I0
sg9
I0
ss(I0
I2
I0
I2
I1
tp599
(dp600
g5
I0
sg6
I0
sg7
I0
sg8
I0
sg9
I0
ss(I0
I0
I0
I0
I1
tp601
(dp602
g5
F1.1053706634077907
sg6
F0.5838357011719606
sg7
F-27.953187296239808
sg8
I0
sg9
F1.332981765687434
ss(I2
I2
I1
I1
I0
tp603
(dp604
g5
I0
sg6
I0
sg7
I0
sg8
I0
sg9
I0
ss(I0
I0
I0
I0
I0
tp605
(dp606
g5
I0
sg6
I0
sg7
I0
sg8
I0
sg9
I0
ss(I2
I2
I0
I2
I0
tp607
(dp608
g5
I0
sg6
I0
sg7
I0
sg8
I0
sg9
I0
ss(I1
I2
I0
I1
I1
tp609
(dp610
g5
I0
sg6
I0
sg7
I0
sg8
I0
sg9
I0
ss(I2
I0
I1
I1
I0
tp611
(dp612
g5
I0
sg6
I0
sg7
I0
sg8
I0
sg9
I0
ss(I0
I1
I0
I1
I0
tp613
(dp614
g5
I0
sg6
I0
sg7
I0
sg8
I0
sg9
I0
ss(I1
I2
I1
I2
I1
tp615
(dp616
g5
I0
sg6
I0
sg7
I0
sg8
I0
sg9
I0
ss(I1
I2
I1
I1
I1
tp617
(dp618
g5
I0
sg6
I0
sg7
I0
sg8
I0
sg9
I0
ss(I0
I2
I1
I0
I0
tp619
(dp620
g5
I0
sg6
I0
sg7
I0
sg8
I0
sg9
I0
ss(I0
I1
I1
I2
I0
tp621
(dp622
g5
I0
sg6
I0
sg7
I0
sg8
I0
sg9
I0
ss(I0
I0
I0
I1
I0
tp623
(dp624
g5
I0
sg6
I0
sg7
I0
sg8
I0
sg9
I0
ss(I1
I1
I2
I2
I0
tp625
(dp626
g5
I0
sg6
I0
sg7
I0
sg8
I0
sg9
I0
ss(I1
I2
I0
I2
I1
tp627
(dp628
g5
I0
sg6
I0
sg7
I0
sg8
I0
sg9
I0
ss(I2
I1
I1
I2
I1
tp629
(dp630
g5
I0
sg6
I0
sg7
I0
sg8
I0
sg9
I0
ss(I2
I0
I1
I2
I0
tp631
(dp632
g5
I0
sg6
I0
sg7
I0
sg8
I0
sg9
I0
ss(I2
I1
I0
I1
I1
tp633
(dp634
g5
I0
sg6
I0
sg7
I0
sg8
I0
sg9
I0
ss(I1
I2
I0
I1
I0
tp635
(dp636
g5
I0
sg6
I0
sg7
I0
sg8
I0
sg9
I0
ss(I2
I2
I2
I0
I1
tp637
(dp638
g5
I0
sg6
I0
sg7
I0
sg8
I0
sg9
I0
ss(I2
I1
I0
I2
I1
tp639
(dp640
g5
I0
sg6
I0
sg7
I0
sg8
I0
sg9
I0
ss(I0
I2
I1
I2
I0
tp641
(dp642
g5
I0
sg6
I0
sg7
I0
sg8
I0
sg9
I0
ss(I0
I0
I1
I1
I0
tp643
(dp644
g5
I0
sg6
I0
sg7
I0
sg8
I0
sg9
I0
ss(I2
I2
I0
I0
I0
tp645
(dp646
g5
I0
sg6
I0
sg7
I0
sg8
I0
sg9
I0
ss(I0
I2
I1
I0
I1
tp647
(dp648
g5
I0
sg6
I0
sg7
I0
sg8
I0
sg9
I0
ss(I2
I0
I0
I2
I0
tp649
(dp650
g5
I0
sg6
I0
sg7
I0
sg8
I0
sg9
I0
ss(I0
I0
I0
I1
I1
tp651
(dp652
g5
F5.3929230834142725
sg6
F-0.5391073915444271
sg7
F-31.33906998350364
sg8
I0
sg9
F-0.3621780884311723
ss(I0
I0
I1
I2
I0
tp653
(dp654
g5
I0
sg6
I0
sg7
I0
sg8
I0
sg9
I0
ss(I1
I0
I2
I0
I1
tp655
(dp656
g5
F-5.999339842449222
sg6
F0.10123213906699918
sg7
F-35.9318874549122
sg8
I0
sg9
F6.069937165615352
ssa(dp657
(I0
I2
I0
I1
I0
tp658
(dp659
g5
I0
sg6
I0
sg7
I0
sg8
I0
sg9
I0
ss(I2
I0
I1
I1
I1
tp660
(dp661
g5
I0
sg6
I0
sg7
I0
sg8
I0
sg9
I0
ss(I1
I2
I1
I2
I0
tp662
(dp663
g5
I0
sg6
I0
sg7
I0
sg8
I0
sg9
I0
ss(I2
I2
I2
I0
I0
tp664
(dp665
g5
I0
sg6
I0
sg7
I0
sg8
I0
sg9
I0
ss(I2
I0
I2
I0
I1
tp666
(dp667
g5
I0
sg6
I0
sg7
I0
sg8
I0
sg9
I0
ss(I1
I0
I0
I2
I0
tp668
(dp669
g5
I0
sg6
I0
sg7
I0
sg8
I0
sg9
I0
ss(I2
I0
I0
I1
I1
tp670
(dp671
g5
I0
sg6
I0
sg7
I0
sg8
I0
sg9
I0
ss(I2
I1
I1
I1
I0
tp672
(dp673
g5
I0
sg6
I0
sg7
I0
sg8
I0
sg9
I0
ss(I0
I2
I1
I2
I1
tp674
(dp675
g5
F242.85530803136993
sg6
I0
sg7
F184.66241435163383
sg8
F242.2002305029476
sg9
F236.78956117806672
ss(I2
I1
I1
I2
I0
tp676
(dp677
g5
I0
sg6
I0
sg7
I0
sg8
I0
sg9
I0
ss(I1
I0
I1
I1
I0
tp678
(dp679
g5
I0
sg6
I0
sg7
I0
sg8
I0
sg9
I0
ss(I2
I0
I1
I2
I1
tp680
(dp681
g5
I0
sg6
I0
sg7
I0
sg8
I0
sg9
I0
ss(I2
I2
I2
I1
I0
tp682
(dp683
g5
I0
sg6
I0
sg7
I0
sg8
I0
sg9
I0
ss(I2
I1
I0
I1
I0
tp684
(dp685
g5
I0
sg6
I0
sg7
I0
sg8
I0
sg9
I0
ss(I2
I2
I1
I0
I0
tp686
(dp687
g5
I0
sg6
I0
sg7
I0
sg8
I0
sg9
I0
ss(I0
I1
I2
I2
I0
tp688
(dp689
g5
I0
sg6
I0
sg7
I0
sg8
I0
sg9
I0
ss(I2
I2
I2
I2
I1
tp690
(dp691
g5
I0
sg6
I0
sg7
I0
sg8
I0
sg9
I0
ss(I1
I0
I2
I2
I1
tp692
(dp693
g5
I0
sg6
I0
sg7
I0
sg8
I0
sg9
I0
ss(I0
I2
I1
I1
I1
tp694
(dp695
g5
F238.81058212085327
sg6
I0
sg7
F192.59117619242062
sg8
F244.10335852684557
sg9
F238.24544161129438
ss(I2
I0
I0
I2
I1
tp696
(dp697
g5
I0
sg6
I0
sg7
I0
sg8
I0
sg9
I0
ss(I2
I1
I1
I1
I1
tp698
(dp699
g5
I0
sg6
I0
sg7
I0
sg8
I0
sg9
I0
ss(I1
I1
I0
I1
I0
tp700
(dp701
g5
I0
sg6
I0
sg7
I0
sg8
I0
sg9
I0
ss(I0
I2
I2
I0
I1
tp702
(dp703
g5
F227.37843977819003
sg6
I0
sg7
F164.08720837686994
sg8
F239.35551539838733
sg9
F237.00566200950215
ss(I2
I2
I1
I2
I1
tp704
(dp705
g5
I0
sg6
I0
sg7
I0
sg8
I0
sg9
I0
ss(I1
I0
I1
I2
I1
tp706
(dp707
g5
I0
sg6
I0
sg7
I0
sg8
I0
sg9
I0
ss(I0
I2
I0
I1
I1
tp708
(dp709
g5
F233.41040449518715
sg6
I0
sg7
F196.38392991745454
sg8
F239.38999152956836
sg9
F231.60755657822315
ss(I1
I1
I1
I2
I0
tp710
(dp711
g5
I0
sg6
I0
sg7
I0
sg8
I0
sg9
I0
ss(I1
I0
I0
I1
I1
tp712
(dp713
g5
I0
sg6
I0
sg7
I0
sg8
I0
sg9
I0
ss(I2
I0
I2
I0
I0
tp714
(dp715
g5
I0
sg6
I0
sg7
I0
sg8
I0
sg9
I0
ss(I0
I0
I2
I1
I0
tp716
(dp717
g5
I0
sg6
I0
sg7
I0
sg8
I0
sg9
I0
ss(I1
I0
I0
I2
I1
tp718
(dp719
g5
I0
sg6
I0
sg7
I0
sg8
I0
sg9
I0
ss(I2
I2
I0
I0
I1
tp720
(dp721
g5
I0
sg6
I0
sg7
I0
sg8
I0
sg9
I0
ss(I1
I0
I1
I1
I1
tp722
(dp723
g5
I0
sg6
I0
sg7
I0
sg8
I0
sg9
I0
ss(I2
I2
I2
I1
I1
tp724
(dp725
g5
I0
sg6
I0
sg7
I0
sg8
I0
sg9
I0
ss(I2
I2
I1
I0
I1
tp726
(dp727
g5
I0
sg6
I0
sg7
I0
sg8
I0
sg9
I0
ss(I0
I0
I2
I0
I1
tp728
(dp729
g5
F68.0368534343613
sg6
I0
sg7
F80.62789110987282
sg8
F112.7397464411994
sg9
F230.06074932809815
ss(I1
I2
I2
I2
I1
tp730
(dp731
g5
I0
sg6
I0
sg7
I0
sg8
I0
sg9
I0
ss(I0
I1
I1
I0
I1
tp732
(dp733
g5
F235.5372768720004
sg6
I0
sg7
F200.70008418614492
sg8
F240.8161881827611
sg9
F241.76399466511646
ss(I1
I2
I0
I0
I0
tp734
(dp735
g5
I0
sg6
I0
sg7
I0
sg8
I0
sg9
I0
ss(I0
I1
I2
I1
I1
tp736
(dp737
g5
F234.41737521748013
sg6
I0
sg7
F187.07126889645778
sg8
F235.44273985341454
sg9
F241.7932434718358
ss(I1
I1
I1
I1
I1
tp738
(dp739
g5
I0
sg6
I0
sg7
I0
sg8
I0
sg9
I0
ss(I0
I1
I2
I2
I1
tp740
(dp741
g5
F242.03314796663776
sg6
I0
sg7
F188.68837141271143
sg8
F236.879077780754
sg9
F242.52524927749164
ss(I1
I0
I2
I2
I0
tp742
(dp743
g5
I0
sg6
I0
sg7
I0
sg8
I0
sg9
I0
ss(I1
I1
I0
I2
I1
tp744
(dp745
g5
I0
sg6
I0
sg7
I0
sg8
I0
sg9
I0
ss(I1
I1
I0
I1
I1
tp746
(dp747
g5
I0
sg6
I0
sg7
I0
sg8
I0
sg9
I0
ss(I2
I0
I2
I1
I1
tp748
(dp749
g5
I0
sg6
I0
sg7
I0
sg8
I0
sg9
I0
ss(I0
I2
I2
I0
I0
tp750
(dp751
g5
I0
sg6
I0
sg7
I0
sg8
I0
sg9
I0
ss(I1
I0
I1
I2
I0
tp752
(dp753
g5
I0
sg6
I0
sg7
I0
sg8
I0
sg9
I0
ss(I1
I1
I1
I2
I1
tp754
(dp755
g5
I0
sg6
I0
sg7
I0
sg8
I0
sg9
I0
ss(I2
I0
I0
I1
I0
tp756
(dp757
g5
I0
sg6
I0
sg7
I0
sg8
I0
sg9
I0
ss(I0
I0
I2
I2
I1
tp758
(dp759
g5
F243.33682866275808
sg6
I0
sg7
F147.9056844085928
sg8
F199.301947928774
sg9
F208.93139716567066
ss(I1
I0
I0
I1
I0
tp760
(dp761
g5
I0
sg6
I0
sg7
I0
sg8
I0
sg9
I0
ss(I0
I0
I2
I1
I1
tp762
(dp763
g5
F176.52900316816718
sg6
I0
sg7
F142.38755801205144
sg8
F203.81459578446632
sg9
F235.33270760938
ss(I1
I1
I0
I0
I0
tp764
(dp765
g5
I0
sg6
I0
sg7
I0
sg8
I0
sg9
I0
ss(I2
I1
I2
I0
I0
tp766
(dp767
g5
I0
sg6
I0
sg7
I0
sg8
I0
sg9
I0
ss(I2
I2
I2
I2
I0
tp768
(dp769
g5
I0
sg6
I0
sg7
I0
sg8
I0
sg9
I0
ss(I1
I2
I2
I0
I1
tp770
(dp771
g5
I0
sg6
I0
sg7
I0
sg8
I0
sg9
I0
ss(I0
I0
I1
I0
I0
tp772
(dp773
g5
I0
sg6
I0
sg7
I0
sg8
I0
sg9
I0
ss(I1
I2
I1
I0
I1
tp774
(dp775
g5
I0
sg6
I0
sg7
I0
sg8
I0
sg9
I0
ss(I0
I1
I1
I0
I0
tp776
(dp777
g5
I0
sg6
I0
sg7
I0
sg8
I0
sg9
I0
ss(I1
I2
I2
I1
I1
tp778
(dp779
g5
I0
sg6
I0
sg7
I0
sg8
I0
sg9
I0
ss(I2
I1
I1
I0
I0
tp780
(dp781
g5
I0
sg6
I0
sg7
I0
sg8
I0
sg9
I0
ss(I1
I2
I0
I0
I1
tp782
(dp783
g5
I0
sg6
I0
sg7
I0
sg8
I0
sg9
I0
ss(I1
I2
I2
I2
I0
tp784
(dp785
g5
I0
sg6
I0
sg7
I0
sg8
I0
sg9
I0
ss(I0
I1
I2
I1
I0
tp786
(dp787
g5
I0
sg6
I0
sg7
I0
sg8
I0
sg9
I0
ss(I2
I0
I1
I0
I0
tp788
(dp789
g5
I0
sg6
I0
sg7
I0
sg8
I0
sg9
I0
ss(I1
I1
I1
I1
I0
tp790
(dp791
g5
I0
sg6
I0
sg7
I0
sg8
I0
sg9
I0
ss(I2
I1
I2
I2
I0
tp792
(dp793
g5
I0
sg6
I0
sg7
I0
sg8
I0
sg9
I0
ss(I2
I1
I2
I1
I1
tp794
(dp795
g5
I0
sg6
I0
sg7
I0
sg8
I0
sg9
I0
ss(I2
I0
I2
I1
I0
tp796
(dp797
g5
I0
sg6
I0
sg7
I0
sg8
I0
sg9
I0
ss(I1
I1
I0
I2
I0
tp798
(dp799
g5
I0
sg6
I0
sg7
I0
sg8
I0
sg9
I0
ss(I2
I1
I2
I0
I1
tp800
(dp801
g5
I0
sg6
I0
sg7
I0
sg8
I0
sg9
I0
ss(I2
I1
I1
I0
I1
tp802
(dp803
g5
I0
sg6
I0
sg7
I0
sg8
I0
sg9
I0
ss(I1
I1
I2
I0
I0
tp804
(dp805
g5
I0
sg6
I0
sg7
I0
sg8
I0
sg9
I0
ss(I0
I0
I1
I0
I1
tp806
(dp807
g5
F232.65437889689628
sg6
I0
sg7
F194.59050694435697
sg8
F235.14109993669902
sg9
F240.380302106914
ss(I0
I0
I2
I2
I0
tp808
(dp809
g5
I0
sg6
I0
sg7
I0
sg8
I0
sg9
I0
ss(I1
I1
I0
I0
I1
tp810
(dp811
g5
I0
sg6
I0
sg7
I0
sg8
I0
sg9
I0
ss(I0
I1
I0
I0
I1
tp812
(dp813
g5
F232.42946105110275
sg6
I0
sg7
F201.57513150639755
sg8
F242.90408948793956
sg9
F232.1051256539235
ss(I1
I2
I2
I0
I0
tp814
(dp815
g5
I0
sg6
I0
sg7
I0
sg8
I0
sg9
I0
ss(I2
I1
I0
I0
I0
tp816
(dp817
g5
I0
sg6
I0
sg7
I0
sg8
I0
sg9
I0
ss(I2
I1
I2
I2
I1
tp818
(dp819
g5
I0
sg6
I0
sg7
I0
sg8
I0
sg9
I0
ss(I1
I2
I1
I0
I0
tp820
(dp821
g5
I0
sg6
I0
sg7
I0
sg8
I0
sg9
I0
ss(I2
I0
I0
I0
I1
tp822
(dp823
g5
I0
sg6
I0
sg7
I0
sg8
I0
sg9
I0
ss(I1
I2
I2
I1
I0
tp824
(dp825
g5
I0
sg6
I0
sg7
I0
sg8
I0
sg9
I0
ss(I0
I2
I2
I1
I0
tp826
(dp827
g5
I0
sg6
I0
sg7
I0
sg8
I0
sg9
I0
ss(I2
I0
I1
I0
I1
tp828
(dp829
g5
I0
sg6
I0
sg7
I0
sg8
I0
sg9
I0
ss(I2
I1
I2
I1
I0
tp830
(dp831
g5
I0
sg6
I0
sg7
I0
sg8
I0
sg9
I0
ss(I1
I0
I0
I0
I0
tp832
(dp833
g5
I0
sg6
I0
sg7
I0
sg8
I0
sg9
I0
ss(I0
I0
I0
I2
I0
tp834
(dp835
g5
I0
sg6
I0
sg7
I0
sg8
I0
sg9
I0
ss(I2
I2
I1
I2
I0
tp836
(dp837
g5
I0
sg6
I0
sg7
I0
sg8
I0
sg9
I0
ss(I0
I2
I1
I1
I0
tp838
(dp839
g5
I0
sg6
I0
sg7
I0
sg8
I0
sg9
I0
ss(I2
I2
I0
I1
I0
tp840
(dp841
g5
I0
sg6
I0
sg7
I0
sg8
I0
sg9
I0
ss(I1
I1
I2
I0
I1
tp842
(dp843
g5
I0
sg6
I0
sg7
I0
sg8
I0
sg9
I0
ss(I2
I1
I0
I0
I1
tp844
(dp845
g5
I0
sg6
I0
sg7
I0
sg8
I0
sg9
I0
ss(I0
I1
I0
I2
I1
tp846
(dp847
g5
F241.7605528883448
sg6
I0
sg7
F167.0321460194789
sg8
F234.23244415839747
sg9
F225.66659711983016
ss(I0
I1
I1
I1
I0
tp848
(dp849
g5
I0
sg6
I0
sg7
I0
sg8
I0
sg9
I0
ss(I0
I1
I0
I0
I0
tp850
(dp851
g5
I0
sg6
I0
sg7
I0
sg8
I0
sg9
I0
ss(I0
I2
I0
I0
I1
tp852
(dp853
g5
F232.15145315663824
sg6
I0
sg7
F199.52558314476775
sg8
F245.29853511319203
sg9
F227.94803971165126
ss(I0
I1
I2
I0
I0
tp854
(dp855
g5
I0
sg6
I0
sg7
I0
sg8
I0
sg9
I0
ss(I1
I1
I1
I0
I0
tp856
(dp857
g5
I0
sg6
I0
sg7
I0
sg8
I0
sg9
I0
ss(I1
I0
I2
I1
I1
tp858
(dp859
g5
I0
sg6
I0
sg7
I0
sg8
I0
sg9
I0
ss(I2
I0
I0
I0
I0
tp860
(dp861
g5
I0
sg6
I0
sg7
I0
sg8
I0
sg9
I0
ss(I1
I1
I2
I1
I0
tp862
(dp863
g5
I0
sg6
I0
sg7
I0
sg8
I0
sg9
I0
ss(I1
I0
I2
I0
I0
tp864
(dp865
g5
I0
sg6
I0
sg7
I0
sg8
I0
sg9
I0
ss(I1
I0
I1
I0
I1
tp866
(dp867
g5
I0
sg6
I0
sg7
I0
sg8
I0
sg9
I0
ss(I0
I2
I2
I1
I1
tp868
(dp869
g5
F236.4667531914357
sg6
I0
sg7
F192.5273241867498
sg8
F242.8584435525952
sg9
F242.53845627726494
ss(I2
I2
I0
I2
I1
tp870
(dp871
g5
I0
sg6
I0
sg7
I0
sg8
I0
sg9
I0
ss(I0
I2
I0
I2
I0
tp872
(dp873
g5
I0
sg6
I0
sg7
I0
sg8
I0
sg9
I0
ss(I2
I2
I1
I1
I1
tp874
(dp875
g5
I0
sg6
I0
sg7
I0
sg8
I0
sg9
I0
ss(I1
I0
I0
I0
I1
tp876
(dp877
g5
I0
sg6
I0
sg7
I0
sg8
I0
sg9
I0
ss(I2
I1
I0
I2
I0
tp878
(dp879
g5
I0
sg6
I0
sg7
I0
sg8
I0
sg9
I0
ss(I0
I2
I2
I2
I0
tp880
(dp881
g5
I0
sg6
I0
sg7
I0
sg8
I0
sg9
I0
ss(I0
I2
I2
I2
I1
tp882
(dp883
g5
F241.9837049386985
sg6
I0
sg7
F191.8786934249572
sg8
F240.9155020940397
sg9
F240.77337694026954
ss(I2
I2
I0
I1
I1
tp884
(dp885
g5
I0
sg6
I0
sg7
I0
sg8
I0
sg9
I0
ss(I2
I0
I2
I2
I1
tp886
(dp887
g5
I0
sg6
I0
sg7
I0
sg8
I0
sg9
I0
ss(I0
I1
I0
I1
I1
tp888
(dp889
g5
F234.18250106411693
sg6
I0
sg7
F202.46458875367637
sg8
F238.92446928072775
sg9
F233.3326347343145
ss(I1
I2
I1
I1
I0
tp890
(dp891
g5
I0
sg6
I0
sg7
I0
sg8
I0
sg9
I0
ss(I0
I1
I0
I2
I0
tp892
(dp893
g5
I0
sg6
I0
sg7
I0
sg8
I0
sg9
I0
ss(I0
I1
I1
I2
I1
tp894
(dp895
g5
F242.10923506266312
sg6
I0
sg7
F188.58330221249736
sg8
F231.9748169794862
sg9
F236.47582296173726
ss(I1
I1
I2
I2
I1
tp896
(dp897
g5
I0
sg6
I0
sg7
I0
sg8
I0
sg9
I0
ss(I0
I1
I1
I1
I1
tp898
(dp899
g5
F239.74648870150708
sg6
I0
sg7
F199.88793415093758
sg8
F237.5843314038726
sg9
F236.24987786364306
ss(I1
I2
I0
I2
I0
tp900
(dp901
g5
I0
sg6
I0
sg7
I0
sg8
I0
sg9
I0
ss(I0
I0
I2
I0
I0
tp902
(dp903
g5
I0
sg6
I0
sg7
I0
sg8
I0
sg9
I0
ss(I0
I2
I0
I0
I0
tp904
(dp905
g5
I0
sg6
I0
sg7
I0
sg8
I0
sg9
I0
ss(I0
I1
I2
I0
I1
tp906
(dp907
g5
F227.89700271703038
sg6
I0
sg7
F153.31210302699088
sg8
F225.2195864855343
sg9
F238.3355891227974
ss(I1
I1
I1
I0
I1
tp908
(dp909
g5
I0
sg6
I0
sg7
I0
sg8
I0
sg9
I0
ss(I0
I0
I0
I2
I1
tp910
(dp911
g5
F241.71559670712097
sg6
I0
sg7
F132.79189609528245
sg8
F172.40270416831865
sg9
F115.51963821354477
ss(I1
I0
I2
I1
I0
tp912
(dp913
g5
I0
sg6
I0
sg7
I0
sg8
I0
sg9
I0
ss(I1
I1
I2
I1
I1
tp914
(dp915
g5
I0
sg6
I0
sg7
I0
sg8
I0
sg9
I0
ss(I0
I0
I1
I1
I1
tp916
(dp917
g5
F227.12556917251504
sg6
I0
sg7
F188.00202180717167
sg8
F216.4672886256875
sg9
F239.95649952272922
ss(I1
I0
I1
I0
I0
tp918
(dp919
g5
I0
sg6
I0
sg7
I0
sg8
I0
sg9
I0
ss(I0
I0
I1
I2
I1
tp920
(dp921
g5
F240.5752210107359
sg6
I0
sg7
F151.75944343587327
sg8
F189.28585765533688
sg9
F207.1530254384711
ss(I2
I0
I2
I2
I0
tp922
(dp923
g5
I0
sg6
I0
sg7
I0
sg8
I0
sg9
I0
ss(I0
I2
I0
I2
I1
tp924
(dp925
g5
F239.61385493055815
sg6
I0
sg7
F184.1884568077981
sg8
F241.46548982208722
sg9
F228.27194678788166
ss(I0
I0
I0
I0
I1
tp926
(dp927
g5
F233.75932485534202
sg6
I0
sg7
F202.97481335577666
sg8
F231.23598218406428
sg9
F236.30293507664902
ss(I2
I2
I1
I1
I0
tp928
(dp929
g5
I0
sg6
I0
sg7
I0
sg8
I0
sg9
I0
ss(I0
I0
I0
I0
I0
tp930
(dp931
g5
I0
sg6
I0
sg7
I0
sg8
I0
sg9
I0
ss(I2
I2
I0
I2
I0
tp932
(dp933
g5
I0
sg6
I0
sg7
I0
sg8
I0
sg9
I0
ss(I1
I2
I0
I1
I1
tp934
(dp935
g5
I0
sg6
I0
sg7
I0
sg8
I0
sg9
I0
ss(I2
I0
I1
I1
I0
tp936
(dp937
g5
I0
sg6
I0
sg7
I0
sg8
I0
sg9
I0
ss(I0
I1
I0
I1
I0
tp938
(dp939
g5
I0
sg6
I0
sg7
I0
sg8
I0
sg9
I0
ss(I1
I2
I1
I2
I1
tp940
(dp941
g5
I0
sg6
I0
sg7
I0
sg8
I0
sg9
I0
ss(I1
I2
I1
I1
I1
tp942
(dp943
g5
I0
sg6
I0
sg7
I0
sg8
I0
sg9
I0
ss(I0
I2
I1
I0
I0
tp944
(dp945
g5
I0
sg6
I0
sg7
I0
sg8
I0
sg9
I0
ss(I0
I1
I1
I2
I0
tp946
(dp947
g5
I0
sg6
I0
sg7
I0
sg8
I0
sg9
I0
ss(I0
I0
I0
I1
I0
tp948
(dp949
g5
I0
sg6
I0
sg7
I0
sg8
I0
sg9
I0
ss(I1
I1
I2
I2
I0
tp950
(dp951
g5
I0
sg6
I0
sg7
I0
sg8
I0
sg9
I0
ss(I1
I2
I0
I2
I1
tp952
(dp953
g5
I0
sg6
I0
sg7
I0
sg8
I0
sg9
I0
ss(I2
I1
I1
I2
I1
tp954
(dp955
g5
I0
sg6
I0
sg7
I0
sg8
I0
sg9
I0
ss(I2
I0
I1
I2
I0
tp956
(dp957
g5
I0
sg6
I0
sg7
I0
sg8
I0
sg9
I0
ss(I2
I1
I0
I1
I1
tp958
(dp959
g5
I0
sg6
I0
sg7
I0
sg8
I0
sg9
I0
ss(I1
I2
I0
I1
I0
tp960
(dp961
g5
I0
sg6
I0
sg7
I0
sg8
I0
sg9
I0
ss(I2
I2
I2
I0
I1
tp962
(dp963
g5
I0
sg6
I0
sg7
I0
sg8
I0
sg9
I0
ss(I2
I1
I0
I2
I1
tp964
(dp965
g5
I0
sg6
I0
sg7
I0
sg8
I0
sg9
I0
ss(I0
I2
I1
I2
I0
tp966
(dp967
g5
I0
sg6
I0
sg7
I0
sg8
I0
sg9
I0
ss(I0
I0
I1
I1
I0
tp968
(dp969
g5
I0
sg6
I0
sg7
I0
sg8
I0
sg9
I0
ss(I2
I2
I0
I0
I0
tp970
(dp971
g5
I0
sg6
I0
sg7
I0
sg8
I0
sg9
I0
ss(I0
I2
I1
I0
I1
tp972
(dp973
g5
F234.96473089529684
sg6
I0
sg7
F194.79836867657167
sg8
F244.81735060831843
sg9
F239.059246926811
ss(I2
I0
I0
I2
I0
tp974
(dp975
g5
I0
sg6
I0
sg7
I0
sg8
I0
sg9
I0
ss(I0
I0
I0
I1
I1
tp976
(dp977
g5
F238.96613112876037
sg6
I0
sg7
F191.10426277711025
sg8
F218.11448735725267
sg9
F225.27431516460103
ss(I0
I0
I1
I2
I0
tp978
(dp979
g5
I0
sg6
I0
sg7
I0
sg8
I0
sg9
I0
ss(I1
I0
I2
I0
I1
tp980
(dp981
g5
I0
sg6
I0
sg7
I0
sg8
I0
sg9
I0
ssaa(lp982
(dp983
(I0
I2
I0
I1
I0
tp984
(dp985
g5
I0
sg6
I0
sg7
I0
sg8
I0
sg9
I0
ss(I2
I0
I1
I1
I1
tp986
(dp987
g5
I0
sg6
I0
sg7
I0
sg8
I0
sg9
I0
ss(I1
I2
I1
I2
I0
tp988
(dp989
g5
I0
sg6
I0
sg7
I0
sg8
I0
sg9
I0
ss(I2
I2
I2
I0
I0
tp990
(dp991
g5
I0
sg6
I0
sg7
I0
sg8
I0
sg9
I0
ss(I2
I0
I2
I0
I1
tp992
(dp993
g5
I0
sg6
I0
sg7
I0
sg8
I0
sg9
I0
ss(I1
I0
I0
I2
I0
tp994
(dp995
g5
I0
sg6
I0
sg7
I0
sg8
I0
sg9
I0
ss(I2
I0
I0
I1
I1
tp996
(dp997
g5
I0
sg6
I0
sg7
I0
sg8
I0
sg9
I0
ss(I2
I1
I1
I1
I0
tp998
(dp999
g5
I0
sg6
I0
sg7
I0
sg8
I0
sg9
I0
ss(I0
I2
I1
I2
I1
tp1000
(dp1001
g5
F2.0090292440272624
sg6
I0
sg7
F-39.010107504114664
sg8
F2.0007658453851844
sg9
F-3.372253581002589
ss(I2
I1
I1
I2
I0
tp1002
(dp1003
g5
I0
sg6
I0
sg7
I0
sg8
I0
sg9
I0
ss(I1
I0
I1
I1
I0
tp1004
(dp1005
g5
I0
sg6
I0
sg7
I0
sg8
I0
sg9
I0
ss(I2
I0
I1
I2
I1
tp1006
(dp1007
g5
I0
sg6
I0
sg7
I0
sg8
I0
sg9
I0
ss(I2
I2
I2
I1
I0
tp1008
(dp1009
g5
I0
sg6
I0
sg7
I0
sg8
I0
sg9
I0
ss(I2
I1
I0
I1
I0
tp1010
(dp1011
g5
I0
sg6
I0
sg7
I0
sg8
I0
sg9
I0
ss(I2
I2
I1
I0
I0
tp1012
(dp1013
g5
I0
sg6
I0
sg7
I0
sg8
I0
sg9
I0
ss(I0
I1
I2
I2
I0
tp1014
(dp1015
g5
I0
sg6
I0
sg7
I0
sg8
I0
sg9
I0
ss(I2
I2
I2
I2
I1
tp1016
(dp1017
g5
I0
sg6
I0
sg7
I0
sg8
I0
sg9
I0
ss(I1
I0
I2
I2
I1
tp1018
(dp1019
g5
I0
sg6
I0
sg7
I0
sg8
I0
sg9
I0
ss(I0
I2
I1
I1
I1
tp1020
(dp1021
g5
F-1.9687849469339573
sg6
I0
sg7
F-37.69521433732084
sg8
F4.071260215918084
sg9
F-1.5773970404274202
ss(I2
I0
I0
I2
I1
tp1022
(dp1023
g5
I0
sg6
I0
sg7
I0
sg8
I0
sg9
I0
ss(I2
I1
I1
I1
I1
tp1024
(dp1025
g5
I0
sg6
I0
sg7
I0
sg8
I0
sg9
I0
ss(I1
I1
I0
I1
I0
tp1026
(dp1027
g5
I0
sg6
I0
sg7
I0
sg8
I0
sg9
I0
ss(I0
I2
I2
I0
I1
tp1028
(dp1029
g5
F-6.974375631945714
sg6
I0
sg7
F-37.37050324282968
sg8
F4.000928641576298
sg9
F4.242924483394206
ss(I2
I2
I1
I2
I1
tp1030
(dp1031
g5
I0
sg6
I0
sg7
I0
sg8
I0
sg9
I0
ss(I1
I0
I1
I2
I1
tp1032
(dp1033
g5
I0
sg6
I0
sg7
I0
sg8
I0
sg9
I0
ss(I0
I2
I0
I1
I1
tp1034
(dp1035
g5
F1.9029458098932197
sg6
I0
sg7
F-33.413638814951646
sg8
F6.13894336299853
sg9
F-5.455055457814996
ss(I1
I1
I1
I2
I0
tp1036
(dp1037
g5
I0
sg6
I0
sg7
I0
sg8
I0
sg9
I0
ss(I1
I0
I0
I1
I1
tp1038
(dp1039
g5
I0
sg6
I0
sg7
I0
sg8
I0
sg9
I0
ss(I2
I0
I2
I0
I0
tp1040
(dp1041
g5
I0
sg6
I0
sg7
I0
sg8
I0
sg9
I0
ss(I0
I0
I2
I1
I0
tp1042
(dp1043
g5
I0
sg6
I0
sg7
I0
sg8
I0
sg9
I0
ss(I1
I0
I0
I2
I1
tp1044
(dp1045
g5
I0
sg6
I0
sg7
I0
sg8
I0
sg9
I0
ss(I2
I2
I0
I0
I1
tp1046
(dp1047
g5
I0
sg6
I0
sg7
I0
sg8
I0
sg9
I0
ss(I1
I0
I1
I1
I1
tp1048
(dp1049
g5
I0
sg6
I0
sg7
I0
sg8
I0
sg9
I0
ss(I2
I2
I2
I1
I1
tp1050
(dp1051
g5
I0
sg6
I0
sg7
I0
sg8
I0
sg9
I0
ss(I2
I2
I1
I0
I1
tp1052
(dp1053
g5
I0
sg6
I0
sg7
I0
sg8
I0
sg9
I0
ss(I0
I0
I2
I0
I1
tp1054
(dp1055
g5
F-3.1484058135689454
sg6
I0
sg7
F-32.372538112874025
sg8
F-3.7344076635902232
sg9
F8.281407095090247
ss(I1
I2
I2
I2
I1
tp1056
(dp1057
g5
I0
sg6
I0
sg7
I0
sg8
I0
sg9
I0
ss(I0
I1
I1
I0
I1
tp1058
(dp1059
g5
F-3.53564957385129
sg6
I0
sg7
F-33.61038105270253
sg8
F2.000327381878739
sg9
F2.00459305875526
ss(I1
I2
I0
I0
I0
tp1060
(dp1061
g5
I0
sg6
I0
sg7
I0
sg8
I0
sg9
I0
ss(I0
I1
I2
I1
I1
tp1062
(dp1063
g5
F-1.3232093558586926
sg6
I0
sg7
F-37.623098820831416
sg8
F-1.6918191456859815
sg9
F4.610943299842857
ss(I1
I1
I1
I1
I1
tp1064
(dp1065
g5
I0
sg6
I0
sg7
I0
sg8
I0
sg9
I0
ss(I0
I1
I2
I2
I1
tp1066
(dp1067
g5
F2.2700392842140262
sg6
I0
sg7
F-38.33780971538508
sg8
F-3.182036536127098
sg9
F2.039061544151941
ss(I1
I0
I2
I2
I0
tp1068
(dp1069
g5
I0
sg6
I0
sg7
I0
sg8
I0
sg9
I0
ss(I1
I1
I0
I2
I1
tp1070
(dp1071
g5
I0
sg6
I0
sg7
I0
sg8
I0
sg9
I0
ss(I1
I1
I0
I1
I1
tp1072
(dp1073
g5
I0
sg6
I0
sg7
I0
sg8
I0
sg9
I0
ss(I2
I0
I2
I1
I1
tp1074
(dp1075
g5
I0
sg6
I0
sg7
I0
sg8
I0
sg9
I0
ss(I0
I2
I2
I0
I0
tp1076
(dp1077
g5
I0
sg6
I0
sg7
I0
sg8
I0
sg9
I0
ss(I1
I0
I1
I2
I0
tp1078
(dp1079
g5
I0
sg6
I0
sg7
I0
sg8
I0
sg9
I0
ss(I1
I1
I1
I2
I1
tp1080
(dp1081
g5
I0
sg6
I0
sg7
I0
sg8
I0
sg9
I0
ss(I2
I0
I0
I1
I0
tp1082
(dp1083
g5
I0
sg6
I0
sg7
I0
sg8
I0
sg9
I0
ss(I0
I0
I2
I2
I1
tp1084
(dp1085
g5
F4.169778258756198
sg6
I0
sg7
F-36.35856633286016
sg8
F-7.4847680393917155
sg9
F4.001482041681527
ss(I1
I0
I0
I1
I0
tp1086
(dp1087
g5
I0
sg6
I0
sg7
I0
sg8
I0
sg9
I0
ss(I0
I0
I2
I1
I1
tp1088
(dp1089
g5
F1.192264062298356
sg6
I0
sg7
F-35.89148371674828
sg8
F-5.605616382664118
sg9
F6.965927661165297
ss(I1
I1
I0
I0
I0
tp1090
(dp1091
g5
I0
sg6
I0
sg7
I0
sg8
I0
sg9
I0
ss(I2
I1
I2
I0
I0
tp1092
(dp1093
g5
I0
sg6
I0
sg7
I0
sg8
I0
sg9
I0
ss(I2
I2
I2
I2
I0
tp1094
(dp1095
g5
I0
sg6
I0
sg7
I0
sg8
I0
sg9
I0
ss(I1
I2
I2
I0
I1
tp1096
(dp1097
g5
I0
sg6
I0
sg7
I0
sg8
I0
sg9
I0
ss(I0
I0
I1
I0
I0
tp1098
(dp1099
g5
I0
sg6
I0
sg7
I0
sg8
I0
sg9
I0
ss(I1
I2
I1
I0
I1
tp1100
(dp1101
g5
I0
sg6
I0
sg7
I0
sg8
I0
sg9
I0
ss(I0
I1
I1
I0
I0
tp1102
(dp1103
g5
I0
sg6
I0
sg7
I0
sg8
I0
sg9
I0
ss(I1
I2
I2
I1
I1
tp1104
(dp1105
g5
I0
sg6
I0
sg7
I0
sg8
I0
sg9
I0
ss(I2
I1
I1
I0
I0
tp1106
(dp1107
g5
I0
sg6
I0
sg7
I0
sg8
I0
sg9
I0
ss(I1
I2
I0
I0
I1
tp1108
(dp1109
g5
I0
sg6
I0
sg7
I0
sg8
I0
sg9
I0
ss(I1
I2
I2
I2
I0
tp1110
(dp1111
g5
I0
sg6
I0
sg7
I0
sg8
I0
sg9
I0
ss(I0
I1
I2
I1
I0
tp1112
(dp1113
g5
I0
sg6
I0
sg7
I0
sg8
I0
sg9
I0
ss(I2
I0
I1
I0
I0
tp1114
(dp1115
g5
I0
sg6
I0
sg7
I0
sg8
I0
sg9
I0
ss(I1
I1
I1
I1
I0
tp1116
(dp1117
g5
I0
sg6
I0
sg7
I0
sg8
I0
sg9
I0
ss(I2
I1
I2
I2
I0
tp1118
(dp1119
g5
I0
sg6
I0
sg7
I0
sg8
I0
sg9
I0
ss(I2
I1
I2
I1
I1
tp1120
(dp1121
g5
I0
sg6
I0
sg7
I0
sg8
I0
sg9
I0
ss(I2
I0
I2
I1
I0
tp1122
(dp1123
g5
I0
sg6
I0
sg7
I0
sg8
I0
sg9
I0
ss(I1
I1
I0
I2
I0
tp1124
(dp1125
g5
I0
sg6
I0
sg7
I0
sg8
I0
sg9
I0
ss(I2
I1
I2
I0
I1
tp1126
(dp1127
g5
I0
sg6
I0
sg7
I0
sg8
I0
sg9
I0
ss(I2
I1
I1
I0
I1
tp1128
(dp1129
g5
I0
sg6
I0
sg7
I0
sg8
I0
sg9
I0
ss(I1
I1
I2
I0
I0
tp1130
(dp1131
g5
I0
sg6
I0
sg7
I0
sg8
I0
sg9
I0
ss(I0
I0
I1
I0
I1
tp1132
(dp1133
g5
F-0.24122017187377953
sg6
I0
sg7
F-31.52648174544344
sg8
F-0.9704265873523358
sg9
F4.000100453458807
ss(I0
I0
I2
I2
I0
tp1134
(dp1135
g5
I0
sg6
I0
sg7
I0
sg8
I0
sg9
I0
ss(I1
I1
I0
I0
I1
tp1136
(dp1137
g5
I0
sg6
I0
sg7
I0
sg8
I0
sg9
I0
ss(I0
I1
I0
I0
I1
tp1138
(dp1139
g5
F-1.228435485359311
sg6
I0
sg7
F-31.822592157675423
sg8
F4.639307957445692
sg9
F-1.9055001948947554
ss(I1
I2
I2
I0
I0
tp1140
(dp1141
g5
I0
sg6
I0
sg7
I0
sg8
I0
sg9
I0
ss(I2
I1
I0
I0
I0
tp1142
(dp1143
g5
I0
sg6
I0
sg7
I0
sg8
I0
sg9
I0
ss(I2
I1
I2
I2
I1
tp1144
(dp1145
g5
I0
sg6
I0
sg7
I0
sg8
I0
sg9
I0
ss(I1
I2
I1
I0
I0
tp1146
(dp1147
g5
I0
sg6
I0
sg7
I0
sg8
I0
sg9
I0
ss(I2
I0
I0
I0
I1
tp1148
(dp1149
g5
I0
sg6
I0
sg7
I0
sg8
I0
sg9
I0
ss(I1
I2
I2
I1
I0
tp1150
(dp1151
g5
I0
sg6
I0
sg7
I0
sg8
I0
sg9
I0
ss(I0
I2
I2
I1
I0
tp1152
(dp1153
g5
I0
sg6
I0
sg7
I0
sg8
I0
sg9
I0
ss(I2
I0
I1
I0
I1
tp1154
(dp1155
g5
I0
sg6
I0
sg7
I0
sg8
I0
sg9
I0
ss(I2
I1
I2
I1
I0
tp1156
(dp1157
g5
I0
sg6
I0
sg7
I0
sg8
I0
sg9
I0
ss(I1
I0
I0
I0
I0
tp1158
(dp1159
g5
I0
sg6
I0
sg7
I0
sg8
I0
sg9
I0
ss(I0
I0
I0
I2
I0
tp1160
(dp1161
g5
I0
sg6
I0
sg7
I0
sg8
I0
sg9
I0
ss(I2
I2
I1
I2
I0
tp1162
(dp1163
g5
I0
sg6
I0
sg7
I0
sg8
I0
sg9
I0
ss(I0
I2
I1
I1
I0
tp1164
(dp1165
g5
I0
sg6
I0
sg7
I0
sg8
I0
sg9
I0
ss(I2
I2
I0
I1
I0
tp1166
(dp1167
g5
I0
sg6
I0
sg7
I0
sg8
I0
sg9
I0
ss(I1
I1
I2
I0
I1
tp1168
(dp1169
g5
I0
sg6
I0
sg7
I0
sg8
I0
sg9
I0
ss(I2
I1
I0
I0
I1
tp1170
(dp1171
g5
I0
sg6
I0
sg7
I0
sg8
I0
sg9
I0
ss(I0
I1
I0
I2
I1
tp1172
(dp1173
g5
F6.007771391777092
sg6
I0
sg7
F-32.88527436673917
sg8
F0.7367892489823522
sg9
F-4.865520887934936
ss(I0
I1
I1
I1
I0
tp1174
(dp1175
g5
I0
sg6
I0
sg7
I0
sg8
I0
sg9
I0
ss(I0
I1
I0
I0
I0
tp1176
(dp1177
g5
I0
sg6
I0
sg7
I0
sg8
I0
sg9
I0
ss(I0
I2
I0
I0
I1
tp1178
(dp1179
g5
F-3.5616990178812387
sg6
I0
sg7
F-33.4813293899162
sg8
F8.108329358056555
sg9
F-3.9462832018663407
ss(I0
I1
I2
I0
I0
tp1180
(dp1181
g5
I0
sg6
I0
sg7
I0
sg8
I0
sg9
I0
ss(I1
I1
I1
I0
I0
tp1182
(dp1183
g5
I0
sg6
I0
sg7
I0
sg8
I0
sg9
I0
ss(I1
I0
I2
I1
I1
tp1184
(dp1185
g5
I0
sg6
I0
sg7
I0
sg8
I0
sg9
I0
ss(I2
I0
I0
I0
I0
tp1186
(dp1187
g5
I0
sg6
I0
sg7
I0
sg8
I0
sg9
I0
ss(I1
I1
I2
I1
I0
tp1188
(dp1189
g5
I0
sg6
I0
sg7
I0
sg8
I0
sg9
I0
ss(I1
I0
I2
I0
I0
tp1190
(dp1191
g5
I0
sg6
I0
sg7
I0
sg8
I0
sg9
I0
ss(I1
I0
I1
I0
I1
tp1192
(dp1193
g5
I0
sg6
I0
sg7
I0
sg8
I0
sg9
I0
ss(I0
I2
I2
I1
I1
tp1194
(dp1195
g5
F-3.506128535372662
sg6
I0
sg7
F-39.000972758968246
sg8
F2.0009254558582965
sg9
F2.19951698122183
ss(I2
I2
I0
I2
I1
tp1196
(dp1197
g5
I0
sg6
I0
sg7
I0
sg8
I0
sg9
I0
ss(I0
I2
I0
I2
I0
tp1198
(dp1199
g5
I0
sg6
I0
sg7
I0
sg8
I0
sg9
I0
ss(I2
I2
I1
I1
I1
tp1200
(dp1201
g5
I0
sg6
I0
sg7
I0
sg8
I0
sg9
I0
ss(I1
I0
I0
I0
I1
tp1202
(dp1203
g5
I0
sg6
I0
sg7
I0
sg8
I0
sg9
I0
ss(I2
I1
I0
I2
I0
tp1204
(dp1205
g5
I0
sg6
I0
sg7
I0
sg8
I0
sg9
I0
ss(I0
I2
I2
I2
I0
tp1206
(dp1207
g5
I0
sg6
I0
sg7
I0
sg8
I0
sg9
I0
ss(I0
I2
I2
I2
I1
tp1208
(dp1209
g5
F0.03109904210603468
sg6
I0
sg7
F-41.99884101424968
sg8
F1.7137403012105824e-08
sg9
F0.13918434963286452
ss(I2
I2
I0
I1
I1
tp1210
(dp1211
g5
I0
sg6
I0
sg7
I0
sg8
I0
sg9
I0
ss(I2
I0
I2
I2
I1
tp1212
(dp1213
g5
I0
sg6
I0
sg7
I0
sg8
I0
sg9
I0
ss(I0
I1
I0
I1
I1
tp1214
(dp1215
g5
F3.283848376397285
sg6
I0
sg7
F-33.9170025934028
sg8
F2.3222638764187877
sg9
F-3.9928296553512834
ss(I1
I2
I1
I1
I0
tp1216
(dp1217
g5
I0
sg6
I0
sg7
I0
sg8
I0
sg9
I0
ss(I0
I1
I0
I2
I0
tp1218
(dp1219
g5
I0
sg6
I0
sg7
I0
sg8
I0
sg9
I0
ss(I0
I1
I1
I2
I1
tp1220
(dp1221
g5
F4.547086968809824
sg6
I0
sg7
F-37.99189670948062
sg8
F-1.9938031110237295
sg9
F-1.8192606221103198
ss(I1
I1
I2
I2
I1
tp1222
(dp1223
g5
I0
sg6
I0
sg7
I0
sg8
I0
sg9
I0
ss(I0
I1
I1
I1
I1
tp1224
(dp1225
g5
F0.5180584724122095
sg6
I0
sg7
F-35.98085491746268
sg8
F0.21768600715893224
sg9
F0.6615784036212868
ss(I1
I2
I0
I2
I0
tp1226
(dp1227
g5
I0
sg6
I0
sg7
I0
sg8
I0
sg9
I0
ss(I0
I0
I2
I0
I0
tp1228
(dp1229
g5
I0
sg6
I0
sg7
I0
sg8
I0
sg9
I0
ss(I0
I2
I0
I0
I0
tp1230
(dp1231
g5
I0
sg6
I0
sg7
I0
sg8
I0
sg9
I0
ss(I0
I1
I2
I0
I1
tp1232
(dp1233
g5
F-4.99268970747494
sg6
I0
sg7
F-33.859096514776155
sg8
F0.1520959335829659
sg9
F6.552635908573244
ss(I1
I1
I1
I0
I1
tp1234
(dp1235
g5
I0
sg6
I0
sg7
I0
sg8
I0
sg9
I0
ss(I0
I0
I0
I2
I1
tp1236
(dp1237
g5
F8.431272901067908
sg6
I0
sg7
F-32.9879292318945
sg8
F-0.7584110449612464
sg9
F-2.0391776889065536
ss(I1
I0
I2
I1
I0
tp1238
(dp1239
g5
I0
sg6
I0
sg7
I0
sg8
I0
sg9
I0
ss(I1
I1
I2
I1
I1
tp1240
(dp1241
g5
I0
sg6
I0
sg7
I0
sg8
I0
sg9
I0
ss(I0
I0
I1
I1
I1
tp1242
(dp1243
g5
F3.71584741545237
sg6
I0
sg7
F-33.871363357925155
sg8
F-3.1782485023826834
sg9
F2.0820864562022514
ss(I1
I0
I1
I0
I0
tp1244
(dp1245
g5
I0
sg6
I0
sg7
I0
sg8
I0
sg9
I0
ss(I0
I0
I1
I2
I1
tp1246
(dp1247
g5
F8.156245620131024
sg6
I0
sg7
F-35.1410715469119
sg8
F-5.143515204615348
sg9
F0.5025300770055776
ss(I2
I0
I2
I2
I0
tp1248
(dp1249
g5
I0
sg6
I0
sg7
I0
sg8
I0
sg9
I0
ss(I0
I2
I0
I2
I1
tp1250
(dp1251
g5
F4.3033773341492125
sg6
I0
sg7
F-30.515330001672275
sg8
F3.806764709147838
sg9
F-6.1015625
ss(I0
I0
I0
I0
I1
tp1252
(dp1253
g5
F1.1507885702878033
sg6
I0
sg7
F-28.160222438630786
sg8
F2.009103984865364
sg9
F0.8444414759007891
ss(I2
I2
I1
I1
I0
tp1254
(dp1255
g5
I0
sg6
I0
sg7
I0
sg8
I0
sg9
I0
ss(I0
I0
I0
I0
I0
tp1256
(dp1257
g5
I0
sg6
I0
sg7
I0
sg8
I0
sg9
I0
ss(I2
I2
I0
I2
I0
tp1258
(dp1259
g5
I0
sg6
I0
sg7
I0
sg8
I0
sg9
I0
ss(I1
I2
I0
I1
I1
tp1260
(dp1261
g5
I0
sg6
I0
sg7
I0
sg8
I0
sg9
I0
ss(I2
I0
I1
I1
I0
tp1262
(dp1263
g5
I0
sg6
I0
sg7
I0
sg8
I0
sg9
I0
ss(I0
I1
I0
I1
I0
tp1264
(dp1265
g5
I0
sg6
I0
sg7
I0
sg8
I0
sg9
I0
ss(I1
I2
I1
I2
I1
tp1266
(dp1267
g5
I0
sg6
I0
sg7
I0
sg8
I0
sg9
I0
ss(I1
I2
I1
I1
I1
tp1268
(dp1269
g5
I0
sg6
I0
sg7
I0
sg8
I0
sg9
I0
ss(I0
I2
I1
I0
I0
tp1270
(dp1271
g5
I0
sg6
I0
sg7
I0
sg8
I0
sg9
I0
ss(I0
I1
I1
I2
I0
tp1272
(dp1273
g5
I0
sg6
I0
sg7
I0
sg8
I0
sg9
I0
ss(I0
I0
I0
I1
I0
tp1274
(dp1275
g5
I0
sg6
I0
sg7
I0
sg8
I0
sg9
I0
ss(I1
I1
I2
I2
I0
tp1276
(dp1277
g5
I0
sg6
I0
sg7
I0
sg8
I0
sg9
I0
ss(I1
I2
I0
I2
I1
tp1278
(dp1279
g5
I0
sg6
I0
sg7
I0
sg8
I0
sg9
I0
ss(I2
I1
I1
I2
I1
tp1280
(dp1281
g5
I0
sg6
I0
sg7
I0
sg8
I0
sg9
I0
ss(I2
I0
I1
I2
I0
tp1282
(dp1283
g5
I0
sg6
I0
sg7
I0
sg8
I0
sg9
I0
ss(I2
I1
I0
I1
I1
tp1284
(dp1285
g5
I0
sg6
I0
sg7
I0
sg8
I0
sg9
I0
ss(I1
I2
I0
I1
I0
tp1286
(dp1287
g5
I0
sg6
I0
sg7
I0
sg8
I0
sg9
I0
ss(I2
I2
I2
I0
I1
tp1288
(dp1289
g5
I0
sg6
I0
sg7
I0
sg8
I0
sg9
I0
ss(I2
I1
I0
I2
I1
tp1290
(dp1291
g5
I0
sg6
I0
sg7
I0
sg8
I0
sg9
I0
ss(I0
I2
I1
I2
I0
tp1292
(dp1293
g5
I0
sg6
I0
sg7
I0
sg8
I0
sg9
I0
ss(I0
I0
I1
I1
I0
tp1294
(dp1295
g5
I0
sg6
I0
sg7
I0
sg8
I0
sg9
I0
ss(I2
I2
I0
I0
I0
tp1296
(dp1297
g5
I0
sg6
I0
sg7
I0
sg8
I0
sg9
I0
ss(I0
I2
I1
I0
I1
tp1298
(dp1299
g5
F-5.688531223709701
sg6
I0
sg7
F-35.999787854105016
sg8
F7.437000719527259
sg9
F0.20081763247139625
ss(I2
I0
I0
I2
I0
tp1300
(dp1301
g5
I0
sg6
I0
sg7
I0
sg8
I0
sg9
I0
ss(I0
I0
I0
I1
I1
tp1302
(dp1303
g5
F4.666917076624894
sg6
I0
sg7
F-31.788061779572303
sg8
F-1.4204187122169767
sg9
F-0.2478972959153789
ss(I0
I0
I1
I2
I0
tp1304
(dp1305
g5
I0
sg6
I0
sg7
I0
sg8
I0
sg9
I0
ss(I1
I0
I2
I0
I1
tp1306
(dp1307
g5
I0
sg6
I0
sg7
I0
sg8
I0
sg9
I0
ssa(dp1308
(I0
I2
I0
I1
I0
tp1309
(dp1310
g5
I0
sg6
I0
sg7
I0
sg8
I0
sg9
I0
ss(I2
I0
I1
I1
I1
tp1311
(dp1312
g5
F-1.9749648967814015
sg6
F4.072124248520115
sg7
F-36.327214987271894
sg8
I0
sg9
F-1.8967212393378237
ss(I1
I2
I1
I2
I0
tp1313
(dp1314
g5
I0
sg6
I0
sg7
I0
sg8
I0
sg9
I0
ss(I2
I2
I2
I0
I0
tp1315
(dp1316
g5
I0
sg6
I0
sg7
I0
sg8
I0
sg9
I0
ss(I2
I0
I2
I0
I1
tp1317
(dp1318
g5
F-7.957446451579672
sg6
F4.000018084876254
sg7
F-37.97575597811034
sg8
I0
sg9
F4.045985534449403
ss(I1
I0
I0
I2
I0
tp1319
(dp1320
g5
I0
sg6
I0
sg7
I0
sg8
I0
sg9
I0
ss(I2
I0
I0
I1
I1
tp1321
(dp1322
g5
F0.016524163342217884
sg6
F6.098579847066038
sg7
F-32.980749337283534
sg8
I0
sg9
F-5.94289696806262
ss(I2
I1
I1
I1
I0
tp1323
(dp1324
g5
I0
sg6
I0
sg7
I0
sg8
I0
sg9
I0
ss(I0
I2
I1
I2
I1
tp1325
(dp1326
g5
I0
sg6
I0
sg7
I0
sg8
I0
sg9
I0
ss(I2
I1
I1
I2
I0
tp1327
(dp1328
g5
I0
sg6
I0
sg7
I0
sg8
I0
sg9
I0
ss(I1
I0
I1
I1
I0
tp1329
(dp1330
g5
I0
sg6
I0
sg7
I0
sg8
I0
sg9
I0
ss(I2
I0
I1
I2
I1
tp1331
(dp1332
g5
F2.077667228763338
sg6
F2.000193083975878
sg7
F-39.986035672465846
sg8
I0
sg9
F-3.9999509977572294
ss(I2
I2
I2
I1
I0
tp1333
(dp1334
g5
I0
sg6
I0
sg7
I0
sg8
I0
sg9
I0
ss(I2
I1
I0
I1
I0
tp1335
(dp1336
g5
I0
sg6
I0
sg7
I0
sg8
I0
sg9
I0
ss(I2
I2
I1
I0
I0
tp1337
(dp1338
g5
I0
sg6
I0
sg7
I0
sg8
I0
sg9
I0
ss(I0
I1
I2
I2
I0
tp1339
(dp1340
g5
I0
sg6
I0
sg7
I0
sg8
I0
sg9
I0
ss(I2
I2
I2
I2
I1
tp1341
(dp1342
g5
I0
sg6
I0
sg7
I0
sg8
I0
sg9
I0
ss(I1
I0
I2
I2
I1
tp1343
(dp1344
g5
F2.0000178948716605
sg6
F-3.9999999997430304
sg7
F-39.99999993887711
sg8
I0
sg9
F2.000000000096131
ss(I0
I2
I1
I1
I1
tp1345
(dp1346
g5
I0
sg6
I0
sg7
I0
sg8
I0
sg9
I0
ss(I2
I0
I0
I2
I1
tp1347
(dp1348
g5
F4.443477627283205
sg6
F5.235064372061515
sg7
F-37.967978678696646
sg8
I0
sg9
F-6.61993602962443
ss(I2
I1
I1
I1
I1
tp1349
(dp1350
g5
I0
sg6
I0
sg7
I0
sg8
I0
sg9
I0
ss(I1
I1
I0
I1
I0
tp1351
(dp1352
g5
I0
sg6
I0
sg7
I0
sg8
I0
sg9
I0
ss(I0
I2
I2
I0
I1
tp1353
(dp1354
g5
I0
sg6
I0
sg7
I0
sg8
I0
sg9
I0
ss(I2
I2
I1
I2
I1
tp1355
(dp1356
g5
I0
sg6
I0
sg7
I0
sg8
I0
sg9
I0
ss(I1
I0
I1
I2
I1
tp1357
(dp1358
g5
F4.005533172167529
sg6
F-1.9790099735850804
sg7
F-37.99859296733922
sg8
I0
sg9
F-1.988771850514055
ss(I0
I2
I0
I1
I1
tp1359
(dp1360
g5
I0
sg6
I0
sg7
I0
sg8
I0
sg9
I0
ss(I1
I1
I1
I2
I0
tp1361
(dp1362
g5
I0
sg6
I0
sg7
I0
sg8
I0
sg9
I0
ss(I1
I0
I0
I1
I1
tp1363
(dp1364
g5
F2.2956934622452776
sg6
F2.017518536374323
sg7
F-33.88000099225583
sg8
I0
sg9
F-3.891929086947879
ss(I2
I0
I2
I0
I0
tp1365
(dp1366
g5
I0
sg6
I0
sg7
I0
sg8
I0
sg9
I0
ss(I0
I0
I2
I1
I0
tp1367
(dp1368
g5
I0
sg6
I0
sg7
I0
sg8
I0
sg9
I0
ss(I1
I0
I0
I2
I1
tp1369
(dp1370
g5
F6.026357851826284
sg6
F0.7916234020582831
sg7
F-35.662858507180744
sg8
I0
sg9
F-5.322695719102531
ss(I2
I2
I0
I0
I1
tp1371
(dp1372
g5
I0
sg6
I0
sg7
I0
sg8
I0
sg9
I0
ss(I1
I0
I1
I1
I1
tp1373
(dp1374
g5
F0.00436594013949166
sg6
F0.40345436750596986
sg7
F-33.98213359190431
sg8
I0
sg9
F0.4467514359392701
ss(I2
I2
I2
I1
I1
tp1375
(dp1376
g5
I0
sg6
I0
sg7
I0
sg8
I0
sg9
I0
ss(I2
I2
I1
I0
I1
tp1377
(dp1378
g5
I0
sg6
I0
sg7
I0
sg8
I0
sg9
I0
ss(I0
I0
I2
I0
I1
tp1379
(dp1380
g5
F-2.755489081222527
sg6
F-3.6411546522357
sg7
F-30.632867930333138
sg8
I0
sg9
F8.07939089433191
ss(I1
I2
I2
I2
I1
tp1381
(dp1382
g5
I0
sg6
I0
sg7
I0
sg8
I0
sg9
I0
ss(I0
I1
I1
I0
I1
tp1383
(dp1384
g5
I0
sg6
I0
sg7
I0
sg8
I0
sg9
I0
ss(I1
I2
I0
I0
I0
tp1385
(dp1386
g5
I0
sg6
I0
sg7
I0
sg8
I0
sg9
I0
ss(I0
I1
I2
I1
I1
tp1387
(dp1388
g5
I0
sg6
I0
sg7
I0
sg8
I0
sg9
I0
ss(I1
I1
I1
I1
I1
tp1389
(dp1390
g5
I0
sg6
I0
sg7
I0
sg8
I0
sg9
I0
ss(I0
I1
I2
I2
I1
tp1391
(dp1392
g5
I0
sg6
I0
sg7
I0
sg8
I0
sg9
I0
ss(I1
I0
I2
I2
I0
tp1393
(dp1394
g5
I0
sg6
I0
sg7
I0
sg8
I0
sg9
I0
ss(I1
I1
I0
I2
I1
tp1395
(dp1396
g5
I0
sg6
I0
sg7
I0
sg8
I0
sg9
I0
ss(I1
I1
I0
I1
I1
tp1397
(dp1398
g5
I0
sg6
I0
sg7
I0
sg8
I0
sg9
I0
ss(I2
I0
I2
I1
I1
tp1399
(dp1400
g5
F-3.975793679041497
sg6
F2.2301609652781624
sg7
F-39.99995526397436
sg8
I0
sg9
F2.0000301396002147
ss(I0
I2
I2
I0
I0
tp1401
(dp1402
g5
I0
sg6
I0
sg7
I0
sg8
I0
sg9
I0
ss(I1
I0
I1
I2
I0
tp1403
(dp1404
g5
I0
sg6
I0
sg7
I0
sg8
I0
sg9
I0
ss(I1
I1
I1
I2
I1
tp1405
(dp1406
g5
I0
sg6
I0
sg7
I0
sg8
I0
sg9
I0
ss(I2
I0
I0
I1
I0
tp1407
(dp1408
g5
I0
sg6
I0
sg7
I0
sg8
I0
sg9
I0
ss(I0
I0
I2
I2
I1
tp1409
(dp1410
g5
F4.324225503583417
sg6
F-7.982123153877506
sg7
F-37.97094100151077
sg8
I0
sg9
F4.005297440355742
ss(I1
I0
I0
I1
I0
tp1411
(dp1412
g5
I0
sg6
I0
sg7
I0
sg8
I0
sg9
I0
ss(I0
I0
I2
I1
I1
tp1413
(dp1414
g5
F0.03551387819972683
sg6
F-5.826727797977166
sg7
F-35.92479140497515
sg8
I0
sg9
F6.0171967148202805
ss(I1
I1
I0
I0
I0
tp1415
(dp1416
g5
I0
sg6
I0
sg7
I0
sg8
I0
sg9
I0
ss(I2
I1
I2
I0
I0
tp1417
(dp1418
g5
I0
sg6
I0
sg7
I0
sg8
I0
sg9
I0
ss(I2
I2
I2
I2
I0
tp1419
(dp1420
g5
I0
sg6
I0
sg7
I0
sg8
I0
sg9
I0
ss(I1
I2
I2
I0
I1
tp1421
(dp1422
g5
I0
sg6
I0
sg7
I0
sg8
I0
sg9
I0
ss(I0
I0
I1
I0
I0
tp1423
(dp1424
g5
I0
sg6
I0
sg7
I0
sg8
I0
sg9
I0
ss(I1
I2
I1
I0
I1
tp1425
(dp1426
g5
I0
sg6
I0
sg7
I0
sg8
I0
sg9
I0
ss(I0
I1
I1
I0
I0
tp1427
(dp1428
g5
I0
sg6
I0
sg7
I0
sg8
I0
sg9
I0
ss(I1
I2
I2
I1
I1
tp1429
(dp1430
g5
I0
sg6
I0
sg7
I0
sg8
I0
sg9
I0
ss(I2
I1
I1
I0
I0
tp1431
(dp1432
g5
I0
sg6
I0
sg7
I0
sg8
I0
sg9
I0
ss(I1
I2
I0
I0
I1
tp1433
(dp1434
g5
I0
sg6
I0
sg7
I0
sg8
I0
sg9
I0
ss(I1
I2
I2
I2
I0
tp1435
(dp1436
g5
I0
sg6
I0
sg7
I0
sg8
I0
sg9
I0
ss(I0
I1
I2
I1
I0
tp1437
(dp1438
g5
I0
sg6
I0
sg7
I0
sg8
I0
sg9
I0
ss(I2
I0
I1
I0
I0
tp1439
(dp1440
g5
I0
sg6
I0
sg7
I0
sg8
I0
sg9
I0
ss(I1
I1
I1
I1
I0
tp1441
(dp1442
g5
I0
sg6
I0
sg7
I0
sg8
I0
sg9
I0
ss(I2
I1
I2
I2
I0
tp1443
(dp1444
g5
I0
sg6
I0
sg7
I0
sg8
I0
sg9
I0
ss(I2
I1
I2
I1
I1
tp1445
(dp1446
g5
I0
sg6
I0
sg7
I0
sg8
I0
sg9
I0
ss(I2
I0
I2
I1
I0
tp1447
(dp1448
g5
I0
sg6
I0
sg7
I0
sg8
I0
sg9
I0
ss(I1
I1
I0
I2
I0
tp1449
(dp1450
g5
I0
sg6
I0
sg7
I0
sg8
I0
sg9
I0
ss(I2
I1
I2
I0
I1
tp1451
(dp1452
g5
I0
sg6
I0
sg7
I0
sg8
I0
sg9
I0
ss(I2
I1
I1
I0
I1
tp1453
(dp1454
g5
I0
sg6
I0
sg7
I0
sg8
I0
sg9
I0
ss(I1
I1
I2
I0
I0
tp1455
(dp1456
g5
I0
sg6
I0
sg7
I0
sg8
I0
sg9
I0
ss(I0
I0
I1
I0
I1
tp1457
(dp1458
g5
F0.04030400347187846
sg6
F-0.24138519295351257
sg7
F-29.040265003808784
sg8
I0
sg9
F4.512066876610657
ss(I0
I0
I2
I2
I0
tp1459
(dp1460
g5
I0
sg6
I0
sg7
I0
sg8
I0
sg9
I0
ss(I1
I1
I0
I0
I1
tp1461
(dp1462
g5
I0
sg6
I0
sg7
I0
sg8
I0
sg9
I0
ss(I0
I1
I0
I0
I1
tp1463
(dp1464
g5
I0
sg6
I0
sg7
I0
sg8
I0
sg9
I0
ss(I1
I2
I2
I0
I0
tp1465
(dp1466
g5
I0
sg6
I0
sg7
I0
sg8
I0
sg9
I0
ss(I2
I1
I0
I0
I0
tp1467
(dp1468
g5
I0
sg6
I0
sg7
I0
sg8
I0
sg9
I0
ss(I2
I1
I2
I2
I1
tp1469
(dp1470
g5
I0
sg6
I0
sg7
I0
sg8
I0
sg9
I0
ss(I1
I2
I1
I0
I0
tp1471
(dp1472
g5
I0
sg6
I0
sg7
I0
sg8
I0
sg9
I0
ss(I2
I0
I0
I0
I1
tp1473
(dp1474
g5
F-3.683297172472258
sg6
F9.472534053347221
sg7
F-30.575048475223046
sg8
I0
sg9
F-3.150306818866203
ss(I1
I2
I2
I1
I0
tp1475
(dp1476
g5
I0
sg6
I0
sg7
I0
sg8
I0
sg9
I0
ss(I0
I2
I2
I1
I0
tp1477
(dp1478
g5
I0
sg6
I0
sg7
I0
sg8
I0
sg9
I0
ss(I2
I0
I1
I0
I1
tp1479
(dp1480
g5
F-5.44228980852899
sg6
F6.425143812897427
sg7
F-33.73944569821957
sg8
I0
sg9
F1.2158262047373163
ss(I2
I1
I2
I1
I0
tp1481
(dp1482
g5
I0
sg6
I0
sg7
I0
sg8
I0
sg9
I0
ss(I1
I0
I0
I0
I0
tp1483
(dp1484
g5
I0
sg6
I0
sg7
I0
sg8
I0
sg9
I0
ss(I0
I0
I0
I2
I0
tp1485
(dp1486
g5
I0
sg6
I0
sg7
I0
sg8
I0
sg9
I0
ss(I2
I2
I1
I2
I0
tp1487
(dp1488
g5
I0
sg6
I0
sg7
I0
sg8
I0
sg9
I0
ss(I0
I2
I1
I1
I0
tp1489
(dp1490
g5
I0
sg6
I0
sg7
I0
sg8
I0
sg9
I0
ss(I2
I2
I0
I1
I0
tp1491
(dp1492
g5
I0
sg6
I0
sg7
I0
sg8
I0
sg9
I0
ss(I1
I1
I2
I0
I1
tp1493
(dp1494
g5
I0
sg6
I0
sg7
I0
sg8
I0
sg9
I0
ss(I2
I1
I0
I0
I1
tp1495
(dp1496
g5
I0
sg6
I0
sg7
I0
sg8
I0
sg9
I0
ss(I0
I1
I0
I2
I1
tp1497
(dp1498
g5
I0
sg6
I0
sg7
I0
sg8
I0
sg9
I0
ss(I0
I1
I1
I1
I0
tp1499
(dp1500
g5
I0
sg6
I0
sg7
I0
sg8
I0
sg9
I0
ss(I0
I1
I0
I0
I0
tp1501
(dp1502
g5
I0
sg6
I0
sg7
I0
sg8
I0
sg9
I0
ss(I0
I2
I0
I0
I1
tp1503
(dp1504
g5
I0
sg6
I0
sg7
I0
sg8
I0
sg9
I0
ss(I0
I1
I2
I0
I0
tp1505
(dp1506
g5
I0
sg6
I0
sg7
I0
sg8
I0
sg9
I0
ss(I1
I1
I1
I0
I0
tp1507
(dp1508
g5
I0
sg6
I0
sg7
I0
sg8
I0
sg9
I0
ss(I1
I0
I2
I1
I1
tp1509
(dp1510
g5
F-1.9989496313217996
sg6
F-1.994770522222674
sg7
F-37.98733505270667
sg8
I0
sg9
F4.000367331669325
ss(I2
I0
I0
I0
I0
tp1511
(dp1512
g5
I0
sg6
I0
sg7
I0
sg8
I0
sg9
I0
ss(I1
I1
I2
I1
I0
tp1513
(dp1514
g5
I0
sg6
I0
sg7
I0
sg8
I0
sg9
I0
ss(I1
I0
I2
I0
I0
tp1515
(dp1516
g5
I0
sg6
I0
sg7
I0
sg8
I0
sg9
I0
ss(I1
I0
I1
I0
I1
tp1517
(dp1518
g5
F-3.332464676165391
sg6
F2.0398665867362182
sg7
F-33.11855455574939
sg8
I0
sg9
F2.0088990562197893
ss(I0
I2
I2
I1
I1
tp1519
(dp1520
g5
I0
sg6
I0
sg7
I0
sg8
I0
sg9
I0
ss(I2
I2
I0
I2
I1
tp1521
(dp1522
g5
I0
sg6
I0
sg7
I0
sg8
I0
sg9
I0
ss(I0
I2
I0
I2
I0
tp1523
(dp1524
g5
I0
sg6
I0
sg7
I0
sg8
I0
sg9
I0
ss(I2
I2
I1
I1
I1
tp1525
(dp1526
g5
I0
sg6
I0
sg7
I0
sg8
I0
sg9
I0
ss(I1
I0
I0
I0
I1
tp1527
(dp1528
g5
F-1.213625545588362
sg6
F6.305687226268054
sg7
F-30.97840372612459
sg8
I0
sg9
F-1.7687431301636292
ss(I2
I1
I0
I2
I0
tp1529
(dp1530
g5
I0
sg6
I0
sg7
I0
sg8
I0
sg9
I0
ss(I0
I2
I2
I2
I0
tp1531
(dp1532
g5
I0
sg6
I0
sg7
I0
sg8
I0
sg9
I0
ss(I0
I2
I2
I2
I1
tp1533
(dp1534
g5
I0
sg6
I0
sg7
I0
sg8
I0
sg9
I0
ss(I2
I2
I0
I1
I1
tp1535
(dp1536
g5
I0
sg6
I0
sg7
I0
sg8
I0
sg9
I0
ss(I2
I0
I2
I2
I1
tp1537
(dp1538
g5
F0.015654987402646228
sg6
F0.08342641777422324
sg7
F-41.98245334965079
sg8
I0
sg9
F0.011462372360753682
ss(I0
I1
I0
I1
I1
tp1539
(dp1540
g5
I0
sg6
I0
sg7
I0
sg8
I0
sg9
I0
ss(I1
I2
I1
I1
I0
tp1541
(dp1542
g5
I0
sg6
I0
sg7
I0
sg8
I0
sg9
I0
ss(I0
I1
I0
I2
I0
tp1543
(dp1544
g5
I0
sg6
I0
sg7
I0
sg8
I0
sg9
I0
ss(I0
I1
I1
I2
I1
tp1545
(dp1546
g5
I0
sg6
I0
sg7
I0
sg8
I0
sg9
I0
ss(I1
I1
I2
I2
I1
tp1547
(dp1548
g5
I0
sg6
I0
sg7
I0
sg8
I0
sg9
I0
ss(I0
I1
I1
I1
I1
tp1549
(dp1550
g5
I0
sg6
I0
sg7
I0
sg8
I0
sg9
I0
ss(I1
I2
I0
I2
I0
tp1551
(dp1552
g5
I0
sg6
I0
sg7
I0
sg8
I0
sg9
I0
ss(I0
I0
I2
I0
I0
tp1553
(dp1554
g5
I0
sg6
I0
sg7
I0
sg8
I0
sg9
I0
ss(I0
I2
I0
I0
I0
tp1555
(dp1556
g5
I0
sg6
I0
sg7
I0
sg8
I0
sg9
I0
ss(I0
I1
I2
I0
I1
tp1557
(dp1558
g5
I0
sg6
I0
sg7
I0
sg8
I0
sg9
I0
ss(I1
I1
I1
I0
I1
tp1559
(dp1560
g5
I0
sg6
I0
sg7
I0
sg8
I0
sg9
I0
ss(I0
I0
I0
I2
I1
tp1561
(dp1562
g5
F8.640610473273933
sg6
F-3.9450139610186676
sg7
F-33.90676475620811
sg8
I0
sg9
F-3.990114419659576
ss(I1
I0
I2
I1
I0
tp1563
(dp1564
g5
I0
sg6
I0
sg7
I0
sg8
I0
sg9
I0
ss(I1
I1
I2
I1
I1
tp1565
(dp1566
g5
I0
sg6
I0
sg7
I0
sg8
I0
sg9
I0
ss(I0
I0
I1
I1
I1
tp1567
(dp1568
g5
F2.027017607200711
sg6
F-2.8772166174749256
sg7
F-33.09131181498708
sg8
I0
sg9
F2.873124577005915
ss(I1
I0
I1
I0
I0
tp1569
(dp1570
g5
I0
sg6
I0
sg7
I0
sg8
I0
sg9
I0
ss(I0
I0
I1
I2
I1
tp1571
(dp1572
g5
F6.160998245068024
sg6
F-5.696487742969131
sg7
F-35.89577711159128
sg8
I0
sg9
F0.7656858718925293
ss(I2
I0
I2
I2
I0
tp1573
(dp1574
g5
I0
sg6
I0
sg7
I0
sg8
I0
sg9
I0
ss(I0
I2
I0
I2
I1
tp1575
(dp1576
g5
I0
sg6
I0
sg7
I0
sg8
I0
sg9
I0
ss(I0
I0
I0
I0
I1
tp1577
(dp1578
g5
F1.4951992670296015
sg6
F2.5123604195298537
sg7
F-28.75946219503782
sg8
I0
sg9
F5.40381877301209
ss(I2
I2
I1
I1
I0
tp1579
(dp1580
g5
I0
sg6
I0
sg7
I0
sg8
I0
sg9
I0
ss(I0
I0
I0
I0
I0
tp1581
(dp1582
g5
I0
sg6
I0
sg7
I0
sg8
I0
sg9
I0
ss(I2
I2
I0
I2
I0
tp1583
(dp1584
g5
I0
sg6
I0
sg7
I0
sg8
I0
sg9
I0
ss(I1
I2
I0
I1
I1
tp1585
(dp1586
g5
I0
sg6
I0
sg7
I0
sg8
I0
sg9
I0
ss(I2
I0
I1
I1
I0
tp1587
(dp1588
g5
I0
sg6
I0
sg7
I0
sg8
I0
sg9
I0
ss(I0
I1
I0
I1
I0
tp1589
(dp1590
g5
I0
sg6
I0
sg7
I0
sg8
I0
sg9
I0
ss(I1
I2
I1
I2
I1
tp1591
(dp1592
g5
I0
sg6
I0
sg7
I0
sg8
I0
sg9
I0
ss(I1
I2
I1
I1
I1
tp1593
(dp1594
g5
I0
sg6
I0
sg7
I0
sg8
I0
sg9
I0
ss(I0
I2
I1
I0
I0
tp1595
(dp1596
g5
I0
sg6
I0
sg7
I0
sg8
I0
sg9
I0
ss(I0
I1
I1
I2
I0
tp1597
(dp1598
g5
I0
sg6
I0
sg7
I0
sg8
I0
sg9
I0
ss(I0
I0
I0
I1
I0
tp1599
(dp1600
g5
I0
sg6
I0
sg7
I0
sg8
I0
sg9
I0
ss(I1
I1
I2
I2
I0
tp1601
(dp1602
g5
I0
sg6
I0
sg7
I0
sg8
I0
sg9
I0
ss(I1
I2
I0
I2
I1
tp1603
(dp1604
g5
I0
sg6
I0
sg7
I0
sg8
I0
sg9
I0
ss(I2
I1
I1
I2
I1
tp1605
(dp1606
g5
I0
sg6
I0
sg7
I0
sg8
I0
sg9
I0
ss(I2
I0
I1
I2
I0
tp1607
(dp1608
g5
I0
sg6
I0
sg7
I0
sg8
I0
sg9
I0
ss(I2
I1
I0
I1
I1
tp1609
(dp1610
g5
I0
sg6
I0
sg7
I0
sg8
I0
sg9
I0
ss(I1
I2
I0
I1
I0
tp1611
(dp1612
g5
I0
sg6
I0
sg7
I0
sg8
I0
sg9
I0
ss(I2
I2
I2
I0
I1
tp1613
(dp1614
g5
I0
sg6
I0
sg7
I0
sg8
I0
sg9
I0
ss(I2
I1
I0
I2
I1
tp1615
(dp1616
g5
I0
sg6
I0
sg7
I0
sg8
I0
sg9
I0
ss(I0
I2
I1
I2
I0
tp1617
(dp1618
g5
I0
sg6
I0
sg7
I0
sg8
I0
sg9
I0
ss(I0
I0
I1
I1
I0
tp1619
(dp1620
g5
I0
sg6
I0
sg7
I0
sg8
I0
sg9
I0
ss(I2
I2
I0
I0
I0
tp1621
(dp1622
g5
I0
sg6
I0
sg7
I0
sg8
I0
sg9
I0
ss(I0
I2
I1
I0
I1
tp1623
(dp1624
g5
I0
sg6
I0
sg7
I0
sg8
I0
sg9
I0
ss(I2
I0
I0
I2
I0
tp1625
(dp1626
g5
I0
sg6
I0
sg7
I0
sg8
I0
sg9
I0
ss(I0
I0
I0
I1
I1
tp1627
(dp1628
g5
F4.340973051219341
sg6
F-0.9574125968224817
sg7
F-30.388198439762245
sg8
I0
sg9
F3.8165786220545512
ss(I0
I0
I1
I2
I0
tp1629
(dp1630
g5
I0
sg6
I0
sg7
I0
sg8
I0
sg9
I0
ss(I1
I0
I2
I0
I1
tp1631
(dp1632
g5
F-5.838020977871312
sg6
F0.5443499704389352
sg7
F-35.997906996282246
sg8
I0
sg9
F6.198921112586977
ssa(dp1633
(I0
I2
I0
I1
I0
tp1634
(dp1635
g5
F1096.1628067996096
sg6
F838.9239098229025
sg7
I0
sg8
F897.9285387731726
sg9
F460.15740702117904
ss(I2
I0
I1
I1
I1
tp1636
(dp1637
g5
F1990.0753841175915
sg6
F2118.007041746106
sg7
I0
sg8
F2015.231518334076
sg9
F2019.003770594364
ss(I1
I2
I1
I2
I0
tp1638
(dp1639
g5
F1999.5998667108283
sg6
F2019.699476813642
sg7
I0
sg8
F2020.9953622009602
sg9
F2017.5877338537648
ss(I2
I2
I2
I0
I0
tp1640
(dp1641
g5
F1956.4392544796906
sg6
F1994.5912588173164
sg7
I0
sg8
F1972.544638143703
sg9
F1992.9957761010862
ss(I2
I0
I2
I0
I1
tp1642
(dp1643
g5
F1695.9496836083808
sg6
F2058.6551702861593
sg7
I0
sg8
F1528.3610924613256
sg9
F2050.8229141933866
ss(I1
I0
I0
I2
I0
tp1644
(dp1645
g5
F1139.1344238651775
sg6
F1100.8995208731528
sg7
I0
sg8
F803.3597238986848
sg9
I0
ss(I2
I0
I0
I1
I1
tp1646
(dp1647
g5
F2046.1509055484858
sg6
F2118.240967370753
sg7
I0
sg8
F1946.298003142184
sg9
F1931.0111246298623
ss(I2
I1
I1
I1
I0
tp1648
(dp1649
g5
F2001.5794481232629
sg6
F1961.994484571167
sg7
I0
sg8
F1958.8230382720317
sg9
F1941.6916434221243
ss(I0
I2
I1
I2
I1
tp1650
(dp1651
g5
F2083.892718795026
sg6
F2051.278420906805
sg7
I0
sg8
F2074.260884892248
sg9
F2065.7840381105543
ss(I2
I1
I1
I2
I0
tp1652
(dp1653
g5
F2021.0409804270284
sg6
F1996.5722385421097
sg7
I0
sg8
F2014.0667766854017
sg9
F2016.7247000671691
ss(I1
I0
I1
I1
I0
tp1654
(dp1655
g5
I0
sg6
F504.19906128478306
sg7
I0
sg8
I0
sg9
F1106.8517901999971
ss(I2
I0
I1
I2
I1
tp1656
(dp1657
g5
F2053.3879263726094
sg6
F2081.999819887208
sg7
I0
sg8
F1549.0914353077492
sg9
F1924.2681218395714
ss(I2
I2
I2
I1
I0
tp1658
(dp1659
g5
F2019.8842484581407
sg6
F2036.8391516912577
sg7
I0
sg8
F2031.2362876577129
sg9
F2021.1739057940986
ss(I2
I1
I0
I1
I0
tp1660
(dp1661
g5
F1537.2121754539307
sg6
F1725.172109667597
sg7
I0
sg8
F1104.191428138469
sg9
F1610.499879789043
ss(I2
I2
I1
I0
I0
tp1662
(dp1663
g5
F1605.2387159750492
sg6
F1768.027530981607
sg7
I0
sg8
F1946.1191475067326
sg9
F1860.498612732873
ss(I0
I1
I2
I2
I0
tp1664
(dp1665
g5
F810.2211490705527
sg6
F854.0195072082855
sg7
I0
sg8
F484.20915693265306
sg9
F1314.8967671250239
ss(I2
I2
I2
I2
I1
tp1666
(dp1667
g5
F2066.9609677887665
sg6
F2086.0546013907533
sg7
I0
sg8
F2074.256811415965
sg9
F2083.834754277874
ss(I1
I0
I2
I2
I1
tp1668
(dp1669
g5
F2108.0479646347603
sg6
F1369.0963390474185
sg7
I0
sg8
F1798.713569188997
sg9
F2014.3442306963793
ss(I0
I2
I1
I1
I1
tp1670
(dp1671
g5
F2086.0883566989937
sg6
F2101.5823831497573
sg7
I0
sg8
F2103.1262151987166
sg9
F2099.7824081061617
ss(I2
I0
I0
I2
I1
tp1672
(dp1673
g5
F2072.147273639943
sg6
F2010.0412508562522
sg7
I0
sg8
F1604.4838796507054
sg9
F1812.4983094606573
ss(I2
I1
I1
I1
I1
tp1674
(dp1675
g5
F2105.878007864278
sg6
F2114.676143536609
sg7
I0
sg8
F2107.2271286693053
sg9
F2106.515822312601
ss(I1
I1
I0
I1
I0
tp1676
(dp1677
g5
F1620.8714602730083
sg6
F473.53363860303773
sg7
I0
sg8
F1305.658917601084
sg9
F1568.3091391562502
ss(I0
I2
I2
I0
I1
tp1678
(dp1679
g5
F2049.7358357053563
sg6
F2040.406973714876
sg7
I0
sg8
F2055.620574160828
sg9
F2068.849480775077
ss(I2
I2
I1
I2
I1
tp1680
(dp1681
g5
F2079.9450720568834
sg6
F2070.816171890874
sg7
I0
sg8
F2084.786213085426
sg9
F2066.59958523525
ss(I1
I0
I1
I2
I1
tp1682
(dp1683
g5
F2102.3174573725673
sg6
F1846.9904923482736
sg7
I0
sg8
F1924.927402543368
sg9
F2016.6634703033105
ss(I0
I2
I0
I1
I1
tp1684
(dp1685
g5
F2114.3240100380012
sg6
F2103.0311356058305
sg7
I0
sg8
F2116.300239044749
sg9
F2105.4349917252066
ss(I1
I1
I1
I2
I0
tp1686
(dp1687
g5
F1850.9120344016903
sg6
F1934.616543869498
sg7
I0
sg8
F1873.1461758541545
sg9
F1987.6095540366996
ss(I1
I0
I0
I1
I1
tp1688
(dp1689
g5
F2115.3041815909596
sg6
F2113.3775476902497
sg7
I0
sg8
F2094.365785144421
sg9
F2090.8759403116755
ss(I2
I0
I2
I0
I0
tp1690
(dp1691
g5
F461.6943659263219
sg6
F1313.9559106397332
sg7
I0
sg8
F1152.2337929903827
sg9
I0
ss(I0
I0
I2
I1
I0
tp1692
(dp1693
g5
F475.04206673725855
sg6
F510.4107997306769
sg7
I0
sg8
F794.5617237079539
sg9
F477.0332490972388
ss(I1
I0
I0
I2
I1
tp1694
(dp1695
g5
F2100.9543151090575
sg6
F2005.9445683268477
sg7
I0
sg8
F1763.234144807828
sg9
F1823.1184696992545
ss(I2
I2
I0
I0
I1
tp1696
(dp1697
g5
F2095.569879634346
sg6
F2086.565592907011
sg7
I0
sg8
F2092.1335700473364
sg9
F2088.263629027084
ss(I1
I0
I1
I1
I1
tp1698
(dp1699
g5
F2106.4610239427784
sg6
F2113.650829771518
sg7
I0
sg8
F2077.955631928212
sg9
F2090.3374648080276
ss(I2
I2
I2
I1
I1
tp1700
(dp1701
g5
F2086.646263613124
sg6
F2100.58563305207
sg7
I0
sg8
F2082.126645974191
sg9
F2090.4133713205583
ss(I2
I2
I1
I0
I1
tp1702
(dp1703
g5
F2092.865915957496
sg6
F2111.118993116906
sg7
I0
sg8
F2109.4969338537903
sg9
F2104.637229165053
ss(I0
I0
I2
I0
I1
tp1704
(dp1705
g5
F1778.0392920059423
sg6
F1817.3078262871722
sg7
I0
sg8
F1895.6844459193176
sg9
F2070.00808169943
ss(I1
I2
I2
I2
I1
tp1706
(dp1707
g5
F2098.5781561002273
sg6
F2088.5490811365867
sg7
I0
sg8
F2083.6817956495597
sg9
F2080.5928384164254
ss(I0
I1
I1
I0
I1
tp1708
(dp1709
g5
F2106.3585828403297
sg6
F2110.656920221343
sg7
I0
sg8
F2114.2447216465544
sg9
F2112.9442120717727
ss(I1
I2
I0
I0
I0
tp1710
(dp1711
g5
F1491.6334409217266
sg6
F1810.6103942070222
sg7
I0
sg8
F822.710980611448
sg9
F1509.6573757552342
ss(I0
I1
I2
I1
I1
tp1712
(dp1713
g5
F2061.887143227769
sg6
F2071.01636120469
sg7
I0
sg8
F2067.0690396966434
sg9
F2087.302963672494
ss(I1
I1
I1
I1
I1
tp1714
(dp1715
g5
F2105.720333805515
sg6
F2108.6280287203217
sg7
I0
sg8
F2109.701242406999
sg9
F2109.0353435273178
ss(I0
I1
I2
I2
I1
tp1716
(dp1717
g5
F2076.0614397429717
sg6
F2007.4540145353642
sg7
I0
sg8
F2046.2128991977374
sg9
F2025.6322685156938
ss(I1
I0
I2
I2
I0
tp1718
(dp1719
g5
F832.9116294638745
sg6
F1153.3724837837885
sg7
I0
sg8
F1497.1512448678961
sg9
F900.075924983215
ss(I1
I1
I0
I2
I1
tp1720
(dp1721
g5
F2113.3663945155877
sg6
F2106.032370475294
sg7
I0
sg8
F2095.990351478281
sg9
F2074.9457200171582
ss(I1
I1
I0
I1
I1
tp1722
(dp1723
g5
F2103.9793868841666
sg6
F2102.9349721359504
sg7
I0
sg8
F2100.8007646679857
sg9
F2108.062317155207
ss(I2
I0
I2
I1
I1
tp1724
(dp1725
g5
F1503.8613591139283
sg6
F2063.535156386805
sg7
I0
sg8
F1454.9362043253934
sg9
F2089.220987269762
ss(I0
I2
I2
I0
I0
tp1726
(dp1727
g5
F1357.0027978407716
sg6
F876.836032339022
sg7
I0
sg8
F873.060384113945
sg9
F1535.667595119226
ss(I1
I0
I1
I2
I0
tp1728
(dp1729
g5
F1079.855700960476
sg6
F470.47833730871525
sg7
I0
sg8
F835.9709823683334
sg9
F785.5838475232434
ss(I1
I1
I1
I2
I1
tp1730
(dp1731
g5
F2115.8851496635953
sg6
F2102.7544586123986
sg7
I0
sg8
F2104.096105487801
sg9
F2097.575976730534
ss(I2
I0
I0
I1
I0
tp1732
(dp1733
g5
F822.9578596605754
sg6
F429.6474400464298
sg7
I0
sg8
F1052.157367944049
sg9
F460.45583344828253
ss(I0
I0
I2
I2
I1
tp1734
(dp1735
g5
F1934.397816058816
sg6
F1105.0112530535855
sg7
I0
sg8
I0
sg9
F1802.237309475122
ss(I1
I0
I0
I1
I0
tp1736
(dp1737
g5
I0
sg6
F1255.8309497484133
sg7
I0
sg8
I0
sg9
I0
ss(I0
I0
I2
I1
I1
tp1738
(dp1739
g5
F1871.7549450041306
sg6
F1861.167179466186
sg7
I0
sg8
F1678.542646574683
sg9
F2086.666633206427
ss(I1
I1
I0
I0
I0
tp1740
(dp1741
g5
F1085.8546907408527
sg6
F880.9536060180799
sg7
I0
sg8
F887.0119943338296
sg9
F826.8281820561683
ss(I2
I1
I2
I0
I0
tp1742
(dp1743
g5
F1892.4577461597546
sg6
F1822.1274550954638
sg7
I0
sg8
F1832.75741004265
sg9
F1955.8214354835304
ss(I2
I2
I2
I2
I0
tp1744
(dp1745
g5
F2031.3525695118535
sg6
F2059.703722175358
sg7
I0
sg8
F2047.8831369222887
sg9
F2019.1811482620242
ss(I1
I2
I2
I0
I1
tp1746
(dp1747
g5
F2078.8108618057104
sg6
F2079.3042314418544
sg7
I0
sg8
F2064.7451444836606
sg9
F2094.7409685086395
ss(I0
I0
I1
I0
I0
tp1748
(dp1749
g5
I0
sg6
I0
sg7
I0
sg8
I0
sg9
I0
ss(I1
I2
I1
I0
I1
tp1750
(dp1751
g5
F2093.914781526184
sg6
F2091.448895340419
sg7
I0
sg8
F2111.98979321107
sg9
F2100.119141816434
ss(I0
I1
I1
I0
I0
tp1752
(dp1753
g5
F1129.33515441935
sg6
F432.94413816183993
sg7
I0
sg8
I0
sg9
F804.9994737928494
ss(I1
I2
I2
I1
I1
tp1754
(dp1755
g5
F2099.017040481293
sg6
F2096.502949909908
sg7
I0
sg8
F2102.8317187844023
sg9
F2093.491800563582
ss(I2
I1
I1
I0
I0
tp1756
(dp1757
g5
F1144.326793773043
sg6
F1499.9198898910997
sg7
I0
sg8
F1791.3997214461037
sg9
F1640.8518277063172
ss(I1
I2
I0
I0
I1
tp1758
(dp1759
g5
F2106.5685614235244
sg6
F2115.840606364608
sg7
I0
sg8
F2119.246219063163
sg9
F2107.063594292963
ss(I1
I2
I2
I2
I0
tp1760
(dp1761
g5
F2040.1651420190426
sg6
F2009.2753564046238
sg7
I0
sg8
F2028.7900552807198
sg9
F2045.258792660121
ss(I0
I1
I2
I1
I0
tp1762
(dp1763
g5
F1350.788801622538
sg6
F471.3605212453127
sg7
I0
sg8
F489.05251080021776
sg9
F1297.7347889847424
ss(I2
I0
I1
I0
I0
tp1764
(dp1765
g5
F460.6226440801428
sg6
F843.2030652032249
sg7
I0
sg8
F461.0469733342014
sg9
I0
ss(I1
I1
I1
I1
I0
tp1766
(dp1767
g5
F1772.111462519237
sg6
F1581.9286147868158
sg7
I0
sg8
F1914.4850862494384
sg9
F1846.589472164207
ss(I2
I1
I2
I2
I0
tp1768
(dp1769
g5
F2051.4400886085596
sg6
F2039.904508412157
sg7
I0
sg8
F2036.2177352374024
sg9
F2033.6620252831158
ss(I2
I1
I2
I1
I1
tp1770
(dp1771
g5
F2097.7957974435635
sg6
F2095.077705740119
sg7
I0
sg8
F2093.674789840926
sg9
F2099.391430793011
ss(I2
I0
I2
I1
I0
tp1772
(dp1773
g5
F1350.2157390281932
sg6
F1447.8321164826025
sg7
I0
sg8
F1109.879077228637
sg9
F1546.580616140603
ss(I1
I1
I0
I2
I0
tp1774
(dp1775
g5
F496.3541128527872
sg6
F475.26746104496567
sg7
I0
sg8
F1712.244649447859
sg9
F1118.6052268879434
ss(I2
I1
I2
I0
I1
tp1776
(dp1777
g5
F2046.6787846932891
sg6
F2078.840601429898
sg7
I0
sg8
F2062.2174530698335
sg9
F2078.4628150588806
ss(I2
I1
I1
I0
I1
tp1778
(dp1779
g5
F2099.9163033303266
sg6
F2102.251851093155
sg7
I0
sg8
F2098.8396343593113
sg9
F2100.2491009153764
ss(I1
I1
I2
I0
I0
tp1780
(dp1781
g5
F1370.5867257207587
sg6
F1794.3112597043732
sg7
I0
sg8
F1499.6989699317944
sg9
F1716.2491707208937
ss(I0
I0
I1
I0
I1
tp1782
(dp1783
g5
F2086.6305001991914
sg6
F2102.4911932122386
sg7
I0
sg8
F2086.176505155566
sg9
F2117.840067605729
ss(I0
I0
I2
I2
I0
tp1784
(dp1785
g5
F504.2442782560072
sg6
I0
sg7
I0
sg8
I0
sg9
I0
ss(I1
I1
I0
I0
I1
tp1786
(dp1787
g5
F2101.646540654589
sg6
F2102.2420689543787
sg7
I0
sg8
F2113.806771760582
sg9
F2110.922447291203
ss(I0
I1
I0
I0
I1
tp1788
(dp1789
g5
F2108.144342801843
sg6
F2112.047283073466
sg7
I0
sg8
F2118.7319912537414
sg9
F2102.985514086438
ss(I1
I2
I2
I0
I0
tp1790
(dp1791
g5
F1780.0348189967533
sg6
F1712.7781821677813
sg7
I0
sg8
F1610.918621295446
sg9
F1941.0331213677343
ss(I2
I1
I0
I0
I0
tp1792
(dp1793
g5
F1133.923920340962
sg6
F901.9346771113871
sg7
I0
sg8
F508.23243090648396
sg9
F1266.0423878085303
ss(I2
I1
I2
I2
I1
tp1794
(dp1795
g5
F2093.0123494956842
sg6
F2082.3423071250463
sg7
I0
sg8
F2072.8047018637712
sg9
F2088.475951241189
ss(I1
I2
I1
I0
I0
tp1796
(dp1797
g5
F819.1071157186851
sg6
F1985.2316114480361
sg7
I0
sg8
F1897.4423434788612
sg9
F1450.5111942584733
ss(I2
I0
I0
I0
I1
tp1798
(dp1799
g5
F2038.2982083465156
sg6
F2115.5156553907923
sg7
I0
sg8
F1974.0239857423117
sg9
F1972.3450246864634
ss(I1
I2
I2
I1
I0
tp1800
(dp1801
g5
F2023.1316484596996
sg6
F2026.5276884580337
sg7
I0
sg8
F1989.2342906607519
sg9
F2027.38648340307
ss(I0
I2
I2
I1
I0
tp1802
(dp1803
g5
F1473.6953895859867
sg6
F1157.135463213286
sg7
I0
sg8
F1310.5011946389257
sg9
F1638.310128768478
ss(I2
I0
I1
I0
I1
tp1804
(dp1805
g5
F1881.6958369783895
sg6
F2105.539025689262
sg7
I0
sg8
F1982.0790758058827
sg9
F2018.9749860455672
ss(I2
I1
I2
I1
I0
tp1806
(dp1807
g5
F1997.7235457339827
sg6
F2031.3226929114433
sg7
I0
sg8
F2003.838691085785
sg9
F2031.8645344275262
ss(I1
I0
I0
I0
I0
tp1808
(dp1809
g5
I0
sg6
F450.9114624556721
sg7
I0
sg8
I0
sg9
I0
ss(I0
I0
I0
I2
I0
tp1810
(dp1811
g5
I0
sg6
I0
sg7
I0
sg8
I0
sg9
I0
ss(I2
I2
I1
I2
I0
tp1812
(dp1813
g5
F2020.9466701754425
sg6
F2027.8394943816509
sg7
I0
sg8
F2028.3316514018375
sg9
F2018.503470652338
ss(I0
I2
I1
I1
I0
tp1814
(dp1815
g5
F1512.3924911964857
sg6
F1531.1096830311924
sg7
I0
sg8
F1658.6839173886788
sg9
F1326.9596397739817
ss(I2
I2
I0
I1
I0
tp1816
(dp1817
g5
F1842.7813551073307
sg6
F1856.9842947538507
sg7
I0
sg8
F1820.3750193348392
sg9
F1895.3287683010499
ss(I1
I1
I2
I0
I1
tp1818
(dp1819
g5
F2075.066454604781
sg6
F2068.2532526747864
sg7
I0
sg8
F2074.471033059223
sg9
F2080.9809261066566
ss(I2
I1
I0
I0
I1
tp1820
(dp1821
g5
F2102.975645098749
sg6
F2114.7874911346134
sg7
I0
sg8
F2100.3372320449917
sg9
F2101.111647839124
ss(I0
I1
I0
I2
I1
tp1822
(dp1823
g5
F2102.7332287438776
sg6
F2069.2529061354044
sg7
I0
sg8
F2054.1336264364063
sg9
F2040.6030572958855
ss(I0
I1
I1
I1
I0
tp1824
(dp1825
g5
F1132.567234337617
sg6
F878.0614126701905
sg7
I0
sg8
F799.0950091248154
sg9
I0
ss(I0
I1
I0
I0
I0
tp1826
(dp1827
g5
F473.03363860303773
sg6
I0
sg7
I0
sg8
F466.88679113804733
sg9
F507.6579439206771
ss(I0
I2
I0
I0
I1
tp1828
(dp1829
g5
F2095.7378396776653
sg6
F2108.495098464717
sg7
I0
sg8
F2118.4284185116294
sg9
F2107.6750608357715
ss(I0
I1
I2
I0
I0
tp1830
(dp1831
g5
F499.62547273293364
sg6
F869.6889410938472
sg7
I0
sg8
F493.8331259026172
sg9
I0
ss(I1
I1
I1
I0
I0
tp1832
(dp1833
g5
F1379.65577201791
sg6
F1299.047802825911
sg7
I0
sg8
F1143.7701362303485
sg9
F515.6833071859694
ss(I1
I0
I2
I1
I1
tp1834
(dp1835
g5
F1975.6619849676913
sg6
F1888.4592111670904
sg7
I0
sg8
F1959.861279514818
sg9
F2102.513166831055
ss(I2
I0
I0
I0
I0
tp1836
(dp1837
g5
I0
sg6
F520.1042508797116
sg7
I0
sg8
I0
sg9
I0
ss(I1
I1
I2
I1
I0
tp1838
(dp1839
g5
F1918.0686139409174
sg6
F1959.5412202177822
sg7
I0
sg8
F1976.689741686629
sg9
F1832.9657110988455
ss(I1
I0
I2
I0
I0
tp1840
(dp1841
g5
F704.0125010082639
sg6
F853.3037204525803
sg7
I0
sg8
F1358.435266921481
sg9
F1172.7684957567049
ss(I1
I0
I1
I0
I1
tp1842
(dp1843
g5
F2094.6161613454
sg6
F2110.654967693601
sg7
I0
sg8
F2087.648488293516
sg9
F2116.7741067546303
ss(I0
I2
I2
I1
I1
tp1844
(dp1845
g5
F2078.552923281028
sg6
F2076.130000443649
sg7
I0
sg8
F2078.0084607149647
sg9
F2071.005128183194
ss(I2
I2
I0
I2
I1
tp1846
(dp1847
g5
F2061.3193604854628
sg6
F2061.313581443052
sg7
I0
sg8
F2041.519380368072
sg9
F2046.9080159478995
ss(I0
I2
I0
I2
I0
tp1848
(dp1849
g5
I0
sg6
F1358.886262726698
sg7
I0
sg8
F503.4528099245408
sg9
I0
ss(I2
I2
I1
I1
I1
tp1850
(dp1851
g5
F2103.219952906288
sg6
F2099.3273558545848
sg7
I0
sg8
F2104.0678373380892
sg9
F2092.249533962333
ss(I1
I0
I0
I0
I1
tp1852
(dp1853
g5
F2099.518048655516
sg6
F2119.7689757694297
sg7
I0
sg8
F2093.4701064626597
sg9
F2106.69399998843
ss(I2
I1
I0
I2
I0
tp1854
(dp1855
g5
F1725.8583130016343
sg6
F1850.6251427547932
sg7
I0
sg8
F1850.2572869639514
sg9
F1822.5733600109654
ss(I0
I2
I2
I2
I0
tp1856
(dp1857
g5
F1601.3720984937763
sg6
F1588.4053943587064
sg7
I0
sg8
F1587.4218369446778
sg9
F1286.5442451197796
ss(I0
I2
I2
I2
I1
tp1858
(dp1859
g5
F2063.1092979298373
sg6
F2052.90340593399
sg7
I0
sg8
F2068.7305243789056
sg9
F1998.5124159930983
ss(I2
I2
I0
I1
I1
tp1860
(dp1861
g5
F2103.0088357518935
sg6
F2104.0345673376587
sg7
I0
sg8
F2110.9011734534924
sg9
F2093.225856598296
ss(I2
I0
I2
I2
I1
tp1862
(dp1863
g5
F2054.389889752002
sg6
F1979.0752008988557
sg7
I0
sg8
F857.6296954551187
sg9
F1989.5851927418062
ss(I0
I1
I0
I1
I1
tp1864
(dp1865
g5
F2113.0599537911366
sg6
F2103.9283011593216
sg7
I0
sg8
F2116.0359117300545
sg9
F2109.541294804193
ss(I1
I2
I1
I1
I0
tp1866
(dp1867
g5
F1991.1537531772922
sg6
F1983.1325660609855
sg7
I0
sg8
F2016.1896072777054
sg9
F1991.7724987314432
ss(I0
I1
I0
I2
I0
tp1868
(dp1869
g5
F486.73300224853523
sg6
F805.90612189122
sg7
I0
sg8
I0
sg9
F498.63026164791245
ss(I0
I1
I1
I2
I1
tp1870
(dp1871
g5
F2081.4336892310807
sg6
F2055.3812970797817
sg7
I0
sg8
F2086.309664490329
sg9
F2081.1084297079733
ss(I1
I1
I2
I2
I1
tp1872
(dp1873
g5
F2075.262998650001
sg6
F2092.2634935275537
sg7
I0
sg8
F2068.3941615105605
sg9
F2095.1624603135815
ss(I0
I1
I1
I1
I1
tp1874
(dp1875
g5
F2115.175812147739
sg6
F2088.543678784625
sg7
I0
sg8
F2099.8855625348247
sg9
F2113.649143567011
ss(I1
I2
I0
I2
I0
tp1876
(dp1877
g5
F1808.5097866384926
sg6
F1664.3644618496173
sg7
I0
sg8
F1632.9285061104188
sg9
F1892.5346271699862
ss(I0
I0
I2
I0
I0
tp1878
(dp1879
g5
I0
sg6
I0
sg7
I0
sg8
I0
sg9
I0
ss(I0
I2
I0
I0
I0
tp1880
(dp1881
g5
F508.79121016571696
sg6
F863.434293590959
sg7
I0
sg8
I0
sg9
I0
ss(I0
I1
I2
I0
I1
tp1882
(dp1883
g5
F2067.342174875984
sg6
F2060.134111480561
sg7
I0
sg8
F2082.609495749964
sg9
F2086.1413266195364
ss(I1
I1
I1
I0
I1
tp1884
(dp1885
g5
F2107.426395960273
sg6
F2101.5026392132513
sg7
I0
sg8
F2107.8945503964214
sg9
F2115.536497562492
ss(I0
I0
I0
I2
I1
tp1886
(dp1887
g5
F2060.039095189358
sg6
F1251.977416466728
sg7
I0
sg8
F1437.0673095474388
sg9
F1042.707156291733
ss(I1
I0
I2
I1
I0
tp1888
(dp1889
g5
F1371.421511112697
sg6
F463.0066016279671
sg7
I0
sg8
I0
sg9
F509.23243090648396
ss(I1
I1
I2
I1
I1
tp1890
(dp1891
g5
F2095.965993138746
sg6
F2092.3894487460757
sg7
I0
sg8
F2097.254331862967
sg9
F2098.2150032923028
ss(I0
I0
I1
I1
I1
tp1892
(dp1893
g5
F2106.656194026538
sg6
F2074.5879154743657
sg7
I0
sg8
F2083.7571874142022
sg9
F2116.5540113138604
ss(I1
I0
I1
I0
I0
tp1894
(dp1895
g5
I0
sg6
F518.2252933633731
sg7
I0
sg8
F1070.4422935671255
sg9
I0
ss(I0
I0
I1
I2
I1
tp1896
(dp1897
g5
F2099.789309645407
sg6
F1654.8958841500587
sg7
I0
sg8
F1775.700830464497
sg9
F1874.4353496817384
ss(I2
I0
I2
I2
I0
tp1898
(dp1899
g5
F864.5183128710344
sg6
F1771.580481406767
sg7
I0
sg8
F1088.7482011160726
sg9
F1626.0070426473726
ss(I0
I2
I0
I2
I1
tp1900
(dp1901
g5
F2034.6404630100608
sg6
F2088.5848207215104
sg7
I0
sg8
F2099.357800826613
sg9
F2059.5968350763683
ss(I0
I0
I0
I0
I1
tp1902
(dp1903
g5
F2103.361257204164
sg6
F2106.5163823504085
sg7
I0
sg8
F2105.187062982298
sg9
F2112.7001531774504
ss(I2
I2
I1
I1
I0
tp1904
(dp1905
g5
F2024.9605358500862
sg6
F2037.598250905898
sg7
I0
sg8
F2026.913502360093
sg9
F2024.9037478611604
ss(I0
I0
I0
I0
I0
tp1906
(dp1907
g5
I0
sg6
I0
sg7
I0
sg8
I0
sg9
I0
ss(I2
I2
I0
I2
I0
tp1908
(dp1909
g5
F1821.7393901538883
sg6
F1489.2742292913026
sg7
I0
sg8
F1979.482034563178
sg9
F1781.3619273531199
ss(I1
I2
I0
I1
I1
tp1910
(dp1911
g5
F2113.802681039385
sg6
F2112.4219841730587
sg7
I0
sg8
F2115.320346695237
sg9
F2100.901720105154
ss(I2
I0
I1
I1
I0
tp1912
(dp1913
g5
F1319.6966162786496
sg6
F1342.5493524539556
sg7
I0
sg8
F841.2341942339135
sg9
F834.2871850341439
ss(I0
I1
I0
I1
I0
tp1914
(dp1915
g5
F509.54239645086443
sg6
I0
sg7
I0
sg8
F488.7519550334929
sg9
F454.92137719522174
ss(I1
I2
I1
I2
I1
tp1916
(dp1917
g5
F2094.6629768878456
sg6
F2084.884072934171
sg7
I0
sg8
F2089.0190609096812
sg9
F2091.1891108954096
ss(I1
I2
I1
I1
I1
tp1918
(dp1919
g5
F2091.877060167113
sg6
F2097.684276539673
sg7
I0
sg8
F2094.952779063532
sg9
F2092.7435791640833
ss(I0
I2
I1
I0
I0
tp1920
(dp1921
g5
I0
sg6
F1339.581802088485
sg7
I0
sg8
F502.62547273293364
sg9
F1171.4894582626007
ss(I0
I1
I1
I2
I0
tp1922
(dp1923
g5
I0
sg6
F831.7758123032623
sg7
I0
sg8
I0
sg9
F476.8349284280424
ss(I0
I0
I0
I1
I0
tp1924
(dp1925
g5
I0
sg6
I0
sg7
I0
sg8
F826.3080756261179
sg9
I0
ss(I1
I1
I2
I2
I0
tp1926
(dp1927
g5
F2015.0290847981478
sg6
F1964.6481274786368
sg7
I0
sg8
F1980.3362043884615
sg9
F2026.75111103146
ss(I1
I2
I0
I2
I1
tp1928
(dp1929
g5
F2097.5672516907052
sg6
F2101.463753804238
sg7
I0
sg8
F2103.6177870464967
sg9
F2100.1007102540766
ss(I2
I1
I1
I2
I1
tp1930
(dp1931
g5
F2098.491031613298
sg6
F2087.9340047759674
sg7
I0
sg8
F2100.084694565307
sg9
F2100.047429485343
ss(I2
I0
I1
I2
I0
tp1932
(dp1933
g5
F1494.9513110548182
sg6
F1287.7112558651302
sg7
I0
sg8
F1133.2027026345913
sg9
F1084.4859998921756
ss(I2
I1
I0
I1
I1
tp1934
(dp1935
g5
F2108.279151812443
sg6
F2112.089524280839
sg7
I0
sg8
F2111.538046002508
sg9
F2092.848848524697
ss(I1
I2
I0
I1
I0
tp1936
(dp1937
g5
F1625.0156918269145
sg6
F1307.7719220994923
sg7
I0
sg8
F1634.6272785156773
sg9
F500.03856541566677
ss(I2
I2
I2
I0
I1
tp1938
(dp1939
g5
F2049.0697838147607
sg6
F2062.9410432480495
sg7
I0
sg8
F2062.4678058616455
sg9
F2089.5133272632384
ss(I2
I1
I0
I2
I1
tp1940
(dp1941
g5
F2082.4540198161035
sg6
F2077.3204164589
sg7
I0
sg8
F2074.0825576384736
sg9
F2081.199257649197
ss(I0
I2
I1
I2
I0
tp1942
(dp1943
g5
F1578.8643481049141
sg6
F1779.867961765144
sg7
I0
sg8
F1135.6080364616985
sg9
F504.328395360763
ss(I0
I0
I1
I1
I0
tp1944
(dp1945
g5
I0
sg6
F460.77765653487154
sg7
I0
sg8
I0
sg9
I0
ss(I2
I2
I0
I0
I0
tp1946
(dp1947
g5
F1739.833660117743
sg6
F827.7742587769832
sg7
I0
sg8
F1120.3407333510002
sg9
F1145.274380788163
ss(I0
I2
I1
I0
I1
tp1948
(dp1949
g5
F2104.7267867287464
sg6
F2102.0281196032693
sg7
I0
sg8
F2116.505535344111
sg9
F2109.671439613309
ss(I2
I0
I0
I2
I0
tp1950
(dp1951
g5
F459.422119419221
sg6
I0
sg7
I0
sg8
F500.73473613918657
sg9
F494.9326343241125
ss(I0
I0
I0
I1
I1
tp1952
(dp1953
g5
F2117.0814411274287
sg6
F2100.394148442137
sg7
I0
sg8
F2094.5125110187387
sg9
F2078.85062975321
ss(I0
I0
I1
I2
I0
tp1954
(dp1955
g5
I0
sg6
I0
sg7
I0
sg8
I0
sg9
I0
ss(I1
I0
I2
I0
I1
tp1956
(dp1957
g5
F1950.0083386493025
sg6
F1949.354346436205
sg7
I0
sg8
F1935.8312749889033
sg9
F2085.2320832708783
ssaa(lp1958
(dp1959
(I0
I2
I0
I1
I0
tp1960
(dp1961
g5
I0
sg6
I0
sg7
I0
sg8
I0
sg9
I0
ss(I2
I0
I1
I1
I1
tp1962
(dp1963
g5
I0
sg6
I0
sg7
I0
sg8
I0
sg9
I0
ss(I1
I2
I1
I2
I0
tp1964
(dp1965
g5
I0
sg6
I0
sg7
I0
sg8
I0
sg9
I0
ss(I2
I2
I2
I0
I0
tp1966
(dp1967
g5
I0
sg6
I0
sg7
I0
sg8
I0
sg9
I0
ss(I2
I0
I2
I0
I1
tp1968
(dp1969
g5
I0
sg6
I0
sg7
I0
sg8
I0
sg9
I0
ss(I1
I0
I0
I2
I0
tp1970
(dp1971
g5
I0
sg6
I0
sg7
I0
sg8
I0
sg9
I0
ss(I2
I0
I0
I1
I1
tp1972
(dp1973
g5
F0.2805547086414354
sg6
F6.058146001554817
sg7
F-34.31596684159359
sg8
F-5.266437675291736
sg9
I0
ss(I2
I1
I1
I1
I0
tp1974
(dp1975
g5
I0
sg6
I0
sg7
I0
sg8
I0
sg9
I0
ss(I0
I2
I1
I2
I1
tp1976
(dp1977
g5
I0
sg6
I0
sg7
I0
sg8
I0
sg9
I0
ss(I2
I1
I1
I2
I0
tp1978
(dp1979
g5
I0
sg6
I0
sg7
I0
sg8
I0
sg9
I0
ss(I1
I0
I1
I1
I0
tp1980
(dp1981
g5
I0
sg6
I0
sg7
I0
sg8
I0
sg9
I0
ss(I2
I0
I1
I2
I1
tp1982
(dp1983
g5
I0
sg6
I0
sg7
I0
sg8
I0
sg9
I0
ss(I2
I2
I2
I1
I0
tp1984
(dp1985
g5
I0
sg6
I0
sg7
I0
sg8
I0
sg9
I0
ss(I2
I1
I0
I1
I0
tp1986
(dp1987
g5
I0
sg6
I0
sg7
I0
sg8
I0
sg9
I0
ss(I2
I2
I1
I0
I0
tp1988
(dp1989
g5
I0
sg6
I0
sg7
I0
sg8
I0
sg9
I0
ss(I0
I1
I2
I2
I0
tp1990
(dp1991
g5
I0
sg6
I0
sg7
I0
sg8
I0
sg9
I0
ss(I2
I2
I2
I2
I1
tp1992
(dp1993
g5
I0
sg6
I0
sg7
I0
sg8
I0
sg9
I0
ss(I1
I0
I2
I2
I1
tp1994
(dp1995
g5
I0
sg6
I0
sg7
I0
sg8
I0
sg9
I0
ss(I0
I2
I1
I1
I1
tp1996
(dp1997
g5
I0
sg6
I0
sg7
I0
sg8
I0
sg9
I0
ss(I2
I0
I0
I2
I1
tp1998
(dp1999
g5
F4.028443155385814
sg6
F4.820472382770653
sg7
F-37.32699145847648
sg8
F-7.549411913415613
sg9
I0
ss(I2
I1
I1
I1
I1
tp2000
(dp2001
g5
I0
sg6
I0
sg7
I0
sg8
I0
sg9
I0
ss(I1
I1
I0
I1
I0
tp2002
(dp2003
g5
I0
sg6
I0
sg7
I0
sg8
I0
sg9
I0
ss(I0
I2
I2
I0
I1
tp2004
(dp2005
g5
I0
sg6
I0
sg7
I0
sg8
I0
sg9
I0
ss(I2
I2
I1
I2
I1
tp2006
(dp2007
g5
I0
sg6
I0
sg7
I0
sg8
I0
sg9
I0
ss(I1
I0
I1
I2
I1
tp2008
(dp2009
g5
I0
sg6
I0
sg7
I0
sg8
I0
sg9
I0
ss(I0
I2
I0
I1
I1
tp2010
(dp2011
g5
F0.3676709309062411
sg6
F-5.883118306554093
sg7
F-35.185400971274206
sg8
F7.73784735188932
sg9
I0
ss(I1
I1
I1
I2
I0
tp2012
(dp2013
g5
I0
sg6
I0
sg7
I0
sg8
I0
sg9
I0
ss(I1
I0
I0
I1
I1
tp2014
(dp2015
g5
F2.3196283283047268
sg6
F4.663715278430862
sg7
F-31.065211561302362
sg8
F-2.746623141522796
sg9
I0
ss(I2
I0
I2
I0
I0
tp2016
(dp2017
g5
I0
sg6
I0
sg7
I0
sg8
I0
sg9
I0
ss(I0
I0
I2
I1
I0
tp2018
(dp2019
g5
I0
sg6
I0
sg7
I0
sg8
I0
sg9
I0
ss(I1
I0
I0
I2
I1
tp2020
(dp2021
g5
F6.142783584400538
sg6
F0.5202435209112957
sg7
F-34.416603566141056
sg8
F-4.0795939178854
sg9
I0
ss(I2
I2
I0
I0
I1
tp2022
(dp2023
g5
F-6.874735168703334
sg6
F4.019210754863555
sg7
F-35.483423308749785
sg8
F4.002706588913304
sg9
I0
ss(I1
I0
I1
I1
I1
tp2024
(dp2025
g5
I0
sg6
I0
sg7
I0
sg8
I0
sg9
I0
ss(I2
I2
I2
I1
I1
tp2026
(dp2027
g5
I0
sg6
I0
sg7
I0
sg8
I0
sg9
I0
ss(I2
I2
I1
I0
I1
tp2028
(dp2029
g5
I0
sg6
I0
sg7
I0
sg8
I0
sg9
I0
ss(I0
I0
I2
I0
I1
tp2030
(dp2031
g5
I0
sg6
I0
sg7
I0
sg8
I0
sg9
I0
ss(I1
I2
I2
I2
I1
tp2032
(dp2033
g5
I0
sg6
I0
sg7
I0
sg8
I0
sg9
I0
ss(I0
I1
I1
I0
I1
tp2034
(dp2035
g5
I0
sg6
I0
sg7
I0
sg8
I0
sg9
I0
ss(I1
I2
I0
I0
I0
tp2036
(dp2037
g5
I0
sg6
I0
sg7
I0
sg8
I0
sg9
I0
ss(I0
I1
I2
I1
I1
tp2038
(dp2039
g5
I0
sg6
I0
sg7
I0
sg8
I0
sg9
I0
ss(I1
I1
I1
I1
I1
tp2040
(dp2041
g5
I0
sg6
I0
sg7
I0
sg8
I0
sg9
I0
ss(I0
I1
I2
I2
I1
tp2042
(dp2043
g5
I0
sg6
I0
sg7
I0
sg8
I0
sg9
I0
ss(I1
I0
I2
I2
I0
tp2044
(dp2045
g5
I0
sg6
I0
sg7
I0
sg8
I0
sg9
I0
ss(I1
I1
I0
I2
I1
tp2046
(dp2047
g5
F4.136187698940395
sg6
F-0.6856446699864107
sg7
F-37.856326110968155
sg8
F-0.2080074289719268
sg9
I0
ss(I1
I1
I0
I1
I1
tp2048
(dp2049
g5
F0.47837032996916756
sg6
F0.3359011647939105
sg7
F-35.673954379603614
sg8
F2.4472561461523674
sg9
I0
ss(I2
I0
I2
I1
I1
tp2050
(dp2051
g5
I0
sg6
I0
sg7
I0
sg8
I0
sg9
I0
ss(I0
I2
I2
I0
I0
tp2052
(dp2053
g5
I0
sg6
I0
sg7
I0
sg8
I0
sg9
I0
ss(I1
I0
I1
I2
I0
tp2054
(dp2055
g5
I0
sg6
I0
sg7
I0
sg8
I0
sg9
I0
ss(I1
I1
I1
I2
I1
tp2056
(dp2057
g5
I0
sg6
I0
sg7
I0
sg8
I0
sg9
I0
ss(I2
I0
I0
I1
I0
tp2058
(dp2059
g5
I0
sg6
I0
sg7
I0
sg8
I0
sg9
I0
ss(I0
I0
I2
I2
I1
tp2060
(dp2061
g5
I0
sg6
I0
sg7
I0
sg8
I0
sg9
I0
ss(I1
I0
I0
I1
I0
tp2062
(dp2063
g5
I0
sg6
I0
sg7
I0
sg8
I0
sg9
I0
ss(I0
I0
I2
I1
I1
tp2064
(dp2065
g5
I0
sg6
I0
sg7
I0
sg8
I0
sg9
I0
ss(I1
I1
I0
I0
I0
tp2066
(dp2067
g5
I0
sg6
I0
sg7
I0
sg8
I0
sg9
I0
ss(I2
I1
I2
I0
I0
tp2068
(dp2069
g5
I0
sg6
I0
sg7
I0
sg8
I0
sg9
I0
ss(I2
I2
I2
I2
I0
tp2070
(dp2071
g5
I0
sg6
I0
sg7
I0
sg8
I0
sg9
I0
ss(I1
I2
I2
I0
I1
tp2072
(dp2073
g5
I0
sg6
I0
sg7
I0
sg8
I0
sg9
I0
ss(I0
I0
I1
I0
I0
tp2074
(dp2075
g5
I0
sg6
I0
sg7
I0
sg8
I0
sg9
I0
ss(I1
I2
I1
I0
I1
tp2076
(dp2077
g5
I0
sg6
I0
sg7
I0
sg8
I0
sg9
I0
ss(I0
I1
I1
I0
I0
tp2078
(dp2079
g5
I0
sg6
I0
sg7
I0
sg8
I0
sg9
I0
ss(I1
I2
I2
I1
I1
tp2080
(dp2081
g5
I0
sg6
I0
sg7
I0
sg8
I0
sg9
I0
ss(I2
I1
I1
I0
I0
tp2082
(dp2083
g5
I0
sg6
I0
sg7
I0
sg8
I0
sg9
I0
ss(I1
I2
I0
I0
I1
tp2084
(dp2085
g5
F-5.044821163015762
sg6
F1.8522512549706107
sg7
F-35.29679179808813
sg8
F6.056481988525166
sg9
I0
ss(I1
I2
I2
I2
I0
tp2086
(dp2087
g5
I0
sg6
I0
sg7
I0
sg8
I0
sg9
I0
ss(I0
I1
I2
I1
I0
tp2088
(dp2089
g5
I0
sg6
I0
sg7
I0
sg8
I0
sg9
I0
ss(I2
I0
I1
I0
I0
tp2090
(dp2091
g5
I0
sg6
I0
sg7
I0
sg8
I0
sg9
I0
ss(I1
I1
I1
I1
I0
tp2092
(dp2093
g5
I0
sg6
I0
sg7
I0
sg8
I0
sg9
I0
ss(I2
I1
I2
I2
I0
tp2094
(dp2095
g5
I0
sg6
I0
sg7
I0
sg8
I0
sg9
I0
ss(I2
I1
I2
I1
I1
tp2096
(dp2097
g5
I0
sg6
I0
sg7
I0
sg8
I0
sg9
I0
ss(I2
I0
I2
I1
I0
tp2098
(dp2099
g5
I0
sg6
I0
sg7
I0
sg8
I0
sg9
I0
ss(I1
I1
I0
I2
I0
tp2100
(dp2101
g5
I0
sg6
I0
sg7
I0
sg8
I0
sg9
I0
ss(I2
I1
I2
I0
I1
tp2102
(dp2103
g5
I0
sg6
I0
sg7
I0
sg8
I0
sg9
I0
ss(I2
I1
I1
I0
I1
tp2104
(dp2105
g5
I0
sg6
I0
sg7
I0
sg8
I0
sg9
I0
ss(I1
I1
I2
I0
I0
tp2106
(dp2107
g5
I0
sg6
I0
sg7
I0
sg8
I0
sg9
I0
ss(I0
I0
I1
I0
I1
tp2108
(dp2109
g5
I0
sg6
I0
sg7
I0
sg8
I0
sg9
I0
ss(I0
I0
I2
I2
I0
tp2110
(dp2111
g5
I0
sg6
I0
sg7
I0
sg8
I0
sg9
I0
ss(I1
I1
I0
I0
I1
tp2112
(dp2113
g5
F-0.42428791017101886
sg6
F2.559526201322207
sg7
F-32.60957340164914
sg8
F2.840872226304811
sg9
I0
ss(I0
I1
I0
I0
I1
tp2114
(dp2115
g5
F1.1128332189956538
sg6
F1.2402126168156438
sg7
F-29.545252632466916
sg8
F4.409160243675457
sg9
I0
ss(I1
I2
I2
I0
I0
tp2116
(dp2117
g5
I0
sg6
I0
sg7
I0
sg8
I0
sg9
I0
ss(I2
I1
I0
I0
I0
tp2118
(dp2119
g5
I0
sg6
I0
sg7
I0
sg8
I0
sg9
I0
ss(I2
I1
I2
I2
I1
tp2120
(dp2121
g5
I0
sg6
I0
sg7
I0
sg8
I0
sg9
I0
ss(I1
I2
I1
I0
I0
tp2122
(dp2123
g5
I0
sg6
I0
sg7
I0
sg8
I0
sg9
I0
ss(I2
I0
I0
I0
I1
tp2124
(dp2125
g5
F-1.7946566354296065
sg6
F8.335571169760343
sg7
F-33.072457012783914
sg8
F-2.529634257310879
sg9
I0
ss(I1
I2
I2
I1
I0
tp2126
(dp2127
g5
I0
sg6
I0
sg7
I0
sg8
I0
sg9
I0
ss(I0
I2
I2
I1
I0
tp2128
(dp2129
g5
I0
sg6
I0
sg7
I0
sg8
I0
sg9
I0
ss(I2
I0
I1
I0
I1
tp2130
(dp2131
g5
I0
sg6
I0
sg7
I0
sg8
I0
sg9
I0
ss(I2
I1
I2
I1
I0
tp2132
(dp2133
g5
I0
sg6
I0
sg7
I0
sg8
I0
sg9
I0
ss(I1
I0
I0
I0
I0
tp2134
(dp2135
g5
I0
sg6
I0
sg7
I0
sg8
I0
sg9
I0
ss(I0
I0
I0
I2
I0
tp2136
(dp2137
g5
I0
sg6
I0
sg7
I0
sg8
I0
sg9
I0
ss(I2
I2
I1
I2
I0
tp2138
(dp2139
g5
I0
sg6
I0
sg7
I0
sg8
I0
sg9
I0
ss(I0
I2
I1
I1
I0
tp2140
(dp2141
g5
I0
sg6
I0
sg7
I0
sg8
I0
sg9
I0
ss(I2
I2
I0
I1
I0
tp2142
(dp2143
g5
I0
sg6
I0
sg7
I0
sg8
I0
sg9
I0
ss(I1
I1
I2
I0
I1
tp2144
(dp2145
g5
I0
sg6
I0
sg7
I0
sg8
I0
sg9
I0
ss(I2
I1
I0
I0
I1
tp2146
(dp2147
g5
F-3.591585452043551
sg6
F6.018680891207078
sg7
F-33.83103423023623
sg8
F0.49926370575634027
sg9
I0
ss(I0
I1
I0
I2
I1
tp2148
(dp2149
g5
F6.111100664686848
sg6
F-5.43964698190958
sg7
F-35.72050475257652
sg8
F1.4145662412950695
sg9
I0
ss(I0
I1
I1
I1
I0
tp2150
(dp2151
g5
I0
sg6
I0
sg7
I0
sg8
I0
sg9
I0
ss(I0
I1
I0
I0
I0
tp2152
(dp2153
g5
I0
sg6
I0
sg7
I0
sg8
I0
sg9
I0
ss(I0
I2
I0
I0
I1
tp2154
(dp2155
g5
F-3.3325559145284243
sg6
F-2.6930886420596734
sg7
F-33.07968558534584
sg8
F8.413163985346028
sg9
I0
ss(I0
I1
I2
I0
I0
tp2156
(dp2157
g5
I0
sg6
I0
sg7
I0
sg8
I0
sg9
I0
ss(I1
I1
I1
I0
I0
tp2158
(dp2159
g5
I0
sg6
I0
sg7
I0
sg8
I0
sg9
I0
ss(I1
I0
I2
I1
I1
tp2160
(dp2161
g5
I0
sg6
I0
sg7
I0
sg8
I0
sg9
I0
ss(I2
I0
I0
I0
I0
tp2162
(dp2163
g5
I0
sg6
I0
sg7
I0
sg8
I0
sg9
I0
ss(I1
I1
I2
I1
I0
tp2164
(dp2165
g5
I0
sg6
I0
sg7
I0
sg8
I0
sg9
I0
ss(I1
I0
I2
I0
I0
tp2166
(dp2167
g5
I0
sg6
I0
sg7
I0
sg8
I0
sg9
I0
ss(I1
I0
I1
I0
I1
tp2168
(dp2169
g5
I0
sg6
I0
sg7
I0
sg8
I0
sg9
I0
ss(I0
I2
I2
I1
I1
tp2170
(dp2171
g5
I0
sg6
I0
sg7
I0
sg8
I0
sg9
I0
ss(I2
I2
I0
I2
I1
tp2172
(dp2173
g5
F0.00017886671033285533
sg6
F0.006422898663728794
sg7
F-41.9329381319529
sg8
F0.40506006119582494
sg9
I0
ss(I0
I2
I0
I2
I0
tp2174
(dp2175
g5
I0
sg6
I0
sg7
I0
sg8
I0
sg9
I0
ss(I2
I2
I1
I1
I1
tp2176
(dp2177
g5
I0
sg6
I0
sg7
I0
sg8
I0
sg9
I0
ss(I1
I0
I0
I0
I1
tp2178
(dp2179
g5
F2.1874584335083576
sg6
F4.94004238893842
sg7
F-29.9095732494199
sg8
F0.8229436703900257
sg9
I0
ss(I2
I1
I0
I2
I0
tp2180
(dp2181
g5
I0
sg6
I0
sg7
I0
sg8
I0
sg9
I0
ss(I0
I2
I2
I2
I0
tp2182
(dp2183
g5
I0
sg6
I0
sg7
I0
sg8
I0
sg9
I0
ss(I0
I2
I2
I2
I1
tp2184
(dp2185
g5
I0
sg6
I0
sg7
I0
sg8
I0
sg9
I0
ss(I2
I2
I0
I1
I1
tp2186
(dp2187
g5
F-3.918161045125979
sg6
F2.080584927273553
sg7
F-39.53901560892932
sg8
F2.000108756919275
sg9
I0
ss(I2
I0
I2
I2
I1
tp2188
(dp2189
g5
I0
sg6
I0
sg7
I0
sg8
I0
sg9
I0
ss(I0
I1
I0
I1
I1
tp2190
(dp2191
g5
F2.8878358591375806
sg6
F-2.3192443506472773
sg7
F-32.31109109692181
sg8
F2.0667595786890947
sg9
I0
ss(I1
I2
I1
I1
I0
tp2192
(dp2193
g5
I0
sg6
I0
sg7
I0
sg8
I0
sg9
I0
ss(I0
I1
I0
I2
I0
tp2194
(dp2195
g5
I0
sg6
I0
sg7
I0
sg8
I0
sg9
I0
ss(I0
I1
I1
I2
I1
tp2196
(dp2197
g5
I0
sg6
I0
sg7
I0
sg8
I0
sg9
I0
ss(I1
I1
I2
I2
I1
tp2198
(dp2199
g5
I0
sg6
I0
sg7
I0
sg8
I0
sg9
I0
ss(I0
I1
I1
I1
I1
tp2200
(dp2201
g5
I0
sg6
I0
sg7
I0
sg8
I0
sg9
I0
ss(I1
I2
I0
I2
I0
tp2202
(dp2203
g5
I0
sg6
I0
sg7
I0
sg8
I0
sg9
I0
ss(I0
I0
I2
I0
I0
tp2204
(dp2205
g5
I0
sg6
I0
sg7
I0
sg8
I0
sg9
I0
ss(I0
I2
I0
I0
I0
tp2206
(dp2207
g5
I0
sg6
I0
sg7
I0
sg8
I0
sg9
I0
ss(I0
I1
I2
I0
I1
tp2208
(dp2209
g5
I0
sg6
I0
sg7
I0
sg8
I0
sg9
I0
ss(I1
I1
I1
I0
I1
tp2210
(dp2211
g5
I0
sg6
I0
sg7
I0
sg8
I0
sg9
I0
ss(I0
I0
I0
I2
I1
tp2212
(dp2213
g5
F8.226484752856615
sg6
F-2.776252338850594
sg7
F-33.46214360309174
sg8
F-2.634191986218102
sg9
I0
ss(I1
I0
I2
I1
I0
tp2214
(dp2215
g5
I0
sg6
I0
sg7
I0
sg8
I0
sg9
I0
ss(I1
I1
I2
I1
I1
tp2216
(dp2217
g5
I0
sg6
I0
sg7
I0
sg8
I0
sg9
I0
ss(I0
I0
I1
I1
I1
tp2218
(dp2219
g5
I0
sg6
I0
sg7
I0
sg8
I0
sg9
I0
ss(I1
I0
I1
I0
I0
tp2220
(dp2221
g5
I0
sg6
I0
sg7
I0
sg8
I0
sg9
I0
ss(I0
I0
I1
I2
I1
tp2222
(dp2223
g5
I0
sg6
I0
sg7
I0
sg8
I0
sg9
I0
ss(I2
I0
I2
I2
I0
tp2224
(dp2225
g5
I0
sg6
I0
sg7
I0
sg8
I0
sg9
I0
ss(I0
I2
I0
I2
I1
tp2226
(dp2227
g5
F4.000000323346484
sg6
F-6.818419344794528
sg7
F-37.713392027746075
sg8
F5.583575468741142
sg9
I0
ss(I0
I0
I0
I0
I1
tp2228
(dp2229
g5
F4.3661458478772355
sg6
F1.3972876559685594
sg7
F-26.806048844148165
sg8
F3.604368056752741
sg9
I0
ss(I2
I2
I1
I1
I0
tp2230
(dp2231
g5
I0
sg6
I0
sg7
I0
sg8
I0
sg9
I0
ss(I0
I0
I0
I0
I0
tp2232
(dp2233
g5
I0
sg6
I0
sg7
I0
sg8
I0
sg9
I0
ss(I2
I2
I0
I2
I0
tp2234
(dp2235
g5
I0
sg6
I0
sg7
I0
sg8
I0
sg9
I0
ss(I1
I2
I0
I1
I1
tp2236
(dp2237
g5
F-1.9029691771571615
sg6
F-1.9786180967487195
sg7
F-37.79102138326073
sg8
F4.03155218305797
sg9
I0
ss(I2
I0
I1
I1
I0
tp2238
(dp2239
g5
I0
sg6
I0
sg7
I0
sg8
I0
sg9
I0
ss(I0
I1
I0
I1
I0
tp2240
(dp2241
g5
I0
sg6
I0
sg7
I0
sg8
I0
sg9
I0
ss(I1
I2
I1
I2
I1
tp2242
(dp2243
g5
I0
sg6
I0
sg7
I0
sg8
I0
sg9
I0
ss(I1
I2
I1
I1
I1
tp2244
(dp2245
g5
I0
sg6
I0
sg7
I0
sg8
I0
sg9
I0
ss(I0
I2
I1
I0
I0
tp2246
(dp2247
g5
I0
sg6
I0
sg7
I0
sg8
I0
sg9
I0
ss(I0
I1
I1
I2
I0
tp2248
(dp2249
g5
I0
sg6
I0
sg7
I0
sg8
I0
sg9
I0
ss(I0
I0
I0
I1
I0
tp2250
(dp2251
g5
I0
sg6
I0
sg7
I0
sg8
I0
sg9
I0
ss(I1
I1
I2
I2
I0
tp2252
(dp2253
g5
I0
sg6
I0
sg7
I0
sg8
I0
sg9
I0
ss(I1
I2
I0
I2
I1
tp2254
(dp2255
g5
F2.000855807352405
sg6
F-3.9995897248591463
sg7
F-38.86066998936403
sg8
F2.000001551382361
sg9
I0
ss(I2
I1
I1
I2
I1
tp2256
(dp2257
g5
I0
sg6
I0
sg7
I0
sg8
I0
sg9
I0
ss(I2
I0
I1
I2
I0
tp2258
(dp2259
g5
I0
sg6
I0
sg7
I0
sg8
I0
sg9
I0
ss(I2
I1
I0
I1
I1
tp2260
(dp2261
g5
F-1.4704160075477388
sg6
F4.100436108289148
sg7
F-37.309011817736305
sg8
F-1.960723528859404
sg9
I0
ss(I1
I2
I0
I1
I0
tp2262
(dp2263
g5
I0
sg6
I0
sg7
I0
sg8
I0
sg9
I0
ss(I2
I2
I2
I0
I1
tp2264
(dp2265
g5
I0
sg6
I0
sg7
I0
sg8
I0
sg9
I0
ss(I2
I1
I0
I2
I1
tp2266
(dp2267
g5
F2.000119178216919
sg6
F3.204577847852983
sg7
F-39.67617012447056
sg8
F-3.9995566535498686
sg9
I0
ss(I0
I2
I1
I2
I0
tp2268
(dp2269
g5
I0
sg6
I0
sg7
I0
sg8
I0
sg9
I0
ss(I0
I0
I1
I1
I0
tp2270
(dp2271
g5
I0
sg6
I0
sg7
I0
sg8
I0
sg9
I0
ss(I2
I2
I0
I0
I0
tp2272
(dp2273
g5
I0
sg6
I0
sg7
I0
sg8
I0
sg9
I0
ss(I0
I2
I1
I0
I1
tp2274
(dp2275
g5
I0
sg6
I0
sg7
I0
sg8
I0
sg9
I0
ss(I2
I0
I0
I2
I0
tp2276
(dp2277
g5
I0
sg6
I0
sg7
I0
sg8
I0
sg9
I0
ss(I0
I0
I0
I1
I1
tp2278
(dp2279
g5
F4.00054215138695
sg6
F-0.8565933917203425
sg7
F-31.545427046238032
sg8
F-1.752759563060263
sg9
I0
ss(I0
I0
I1
I2
I0
tp2280
(dp2281
g5
I0
sg6
I0
sg7
I0
sg8
I0
sg9
I0
ss(I1
I0
I2
I0
I1
tp2282
(dp2283
g5
I0
sg6
I0
sg7
I0
sg8
I0
sg9
I0
ssa(dp2284
(I0
I2
I0
I1
I0
tp2285
(dp2286
g5
I0
sg6
I0
sg7
I0
sg8
I0
sg9
I0
ss(I2
I0
I1
I1
I1
tp2287
(dp2288
g5
I0
sg6
I0
sg7
I0
sg8
I0
sg9
I0
ss(I1
I2
I1
I2
I0
tp2289
(dp2290
g5
I0
sg6
I0
sg7
I0
sg8
I0
sg9
I0
ss(I2
I2
I2
I0
I0
tp2291
(dp2292
g5
I0
sg6
I0
sg7
I0
sg8
I0
sg9
I0
ss(I2
I0
I2
I0
I1
tp2293
(dp2294
g5
I0
sg6
F615.5637717234688
sg7
F329.24167391701434
sg8
F580.7036719509933
sg9
F600.5739854668557
ss(I1
I0
I0
I2
I0
tp2295
(dp2296
g5
I0
sg6
I0
sg7
I0
sg8
I0
sg9
I0
ss(I2
I0
I0
I1
I1
tp2297
(dp2298
g5
I0
sg6
I0
sg7
I0
sg8
I0
sg9
I0
ss(I2
I1
I1
I1
I0
tp2299
(dp2300
g5
I0
sg6
I0
sg7
I0
sg8
I0
sg9
I0
ss(I0
I2
I1
I2
I1
tp2301
(dp2302
g5
I0
sg6
I0
sg7
I0
sg8
I0
sg9
I0
ss(I2
I1
I1
I2
I0
tp2303
(dp2304
g5
I0
sg6
I0
sg7
I0
sg8
I0
sg9
I0
ss(I1
I0
I1
I1
I0
tp2305
(dp2306
g5
I0
sg6
I0
sg7
I0
sg8
I0
sg9
I0
ss(I2
I0
I1
I2
I1
tp2307
(dp2308
g5
I0
sg6
I0
sg7
I0
sg8
I0
sg9
I0
ss(I2
I2
I2
I1
I0
tp2309
(dp2310
g5
I0
sg6
I0
sg7
I0
sg8
I0
sg9
I0
ss(I2
I1
I0
I1
I0
tp2311
(dp2312
g5
I0
sg6
I0
sg7
I0
sg8
I0
sg9
I0
ss(I2
I2
I1
I0
I0
tp2313
(dp2314
g5
I0
sg6
I0
sg7
I0
sg8
I0
sg9
I0
ss(I0
I1
I2
I2
I0
tp2315
(dp2316
g5
I0
sg6
I0
sg7
I0
sg8
I0
sg9
I0
ss(I2
I2
I2
I2
I1
tp2317
(dp2318
g5
I0
sg6
I0
sg7
I0
sg8
I0
sg9
I0
ss(I1
I0
I2
I2
I1
tp2319
(dp2320
g5
I0
sg6
I0
sg7
I0
sg8
I0
sg9
I0
ss(I0
I2
I1
I1
I1
tp2321
(dp2322
g5
I0
sg6
I0
sg7
I0
sg8
I0
sg9
I0
ss(I2
I0
I0
I2
I1
tp2323
(dp2324
g5
I0
sg6
I0
sg7
I0
sg8
I0
sg9
I0
ss(I2
I1
I1
I1
I1
tp2325
(dp2326
g5
I0
sg6
I0
sg7
I0
sg8
I0
sg9
I0
ss(I1
I1
I0
I1
I0
tp2327
(dp2328
g5
I0
sg6
I0
sg7
I0
sg8
I0
sg9
I0
ss(I0
I2
I2
I0
I1
tp2329
(dp2330
g5
I0
sg6
F606.3491787512773
sg7
F569.9588473807718
sg8
F619.6225275323809
sg9
F620.1153799733139
ss(I2
I2
I1
I2
I1
tp2331
(dp2332
g5
I0
sg6
I0
sg7
I0
sg8
I0
sg9
I0
ss(I1
I0
I1
I2
I1
tp2333
(dp2334
g5
I0
sg6
I0
sg7
I0
sg8
I0
sg9
I0
ss(I0
I2
I0
I1
I1
tp2335
(dp2336
g5
I0
sg6
I0
sg7
I0
sg8
I0
sg9
I0
ss(I1
I1
I1
I2
I0
tp2337
(dp2338
g5
I0
sg6
I0
sg7
I0
sg8
I0
sg9
I0
ss(I1
I0
I0
I1
I1
tp2339
(dp2340
g5
I0
sg6
I0
sg7
I0
sg8
I0
sg9
I0
ss(I2
I0
I2
I0
I0
tp2341
(dp2342
g5
I0
sg6
I0
sg7
I0
sg8
I0
sg9
I0
ss(I0
I0
I2
I1
I0
tp2343
(dp2344
g5
I0
sg6
I0
sg7
I0
sg8
I0
sg9
I0
ss(I1
I0
I0
I2
I1
tp2345
(dp2346
g5
I0
sg6
I0
sg7
I0
sg8
I0
sg9
I0
ss(I2
I2
I0
I0
I1
tp2347
(dp2348
g5
I0
sg6
F621.2732850415136
sg7
F575.6639393771025
sg8
F615.405935160506
sg9
F598.283226180049
ss(I1
I0
I1
I1
I1
tp2349
(dp2350
g5
I0
sg6
I0
sg7
I0
sg8
I0
sg9
I0
ss(I2
I2
I2
I1
I1
tp2351
(dp2352
g5
I0
sg6
I0
sg7
I0
sg8
I0
sg9
I0
ss(I2
I2
I1
I0
I1
tp2353
(dp2354
g5
I0
sg6
F619.1193444187653
sg7
F571.8174021607708
sg8
F621.1544425387483
sg9
F616.6011296048727
ss(I0
I0
I2
I0
I1
tp2355
(dp2356
g5
I0
sg6
F592.7951384009298
sg7
F509.49426051550927
sg8
F566.1581999447875
sg9
F604.1788192189811
ss(I1
I2
I2
I2
I1
tp2357
(dp2358
g5
I0
sg6
I0
sg7
I0
sg8
I0
sg9
I0
ss(I0
I1
I1
I0
I1
tp2359
(dp2360
g5
I0
sg6
F611.1168814875094
sg7
F579.5146219870136
sg8
F616.8380210381016
sg9
F615.8531132938856
ss(I1
I2
I0
I0
I0
tp2361
(dp2362
g5
I0
sg6
I0
sg7
I0
sg8
I0
sg9
I0
ss(I0
I1
I2
I1
I1
tp2363
(dp2364
g5
I0
sg6
I0
sg7
I0
sg8
I0
sg9
I0
ss(I1
I1
I1
I1
I1
tp2365
(dp2366
g5
I0
sg6
I0
sg7
I0
sg8
I0
sg9
I0
ss(I0
I1
I2
I2
I1
tp2367
(dp2368
g5
I0
sg6
I0
sg7
I0
sg8
I0
sg9
I0
ss(I1
I0
I2
I2
I0
tp2369
(dp2370
g5
I0
sg6
I0
sg7
I0
sg8
I0
sg9
I0
ss(I1
I1
I0
I2
I1
tp2371
(dp2372
g5
I0
sg6
I0
sg7
I0
sg8
I0
sg9
I0
ss(I1
I1
I0
I1
I1
tp2373
(dp2374
g5
I0
sg6
I0
sg7
I0
sg8
I0
sg9
I0
ss(I2
I0
I2
I1
I1
tp2375
(dp2376
g5
I0
sg6
I0
sg7
I0
sg8
I0
sg9
I0
ss(I0
I2
I2
I0
I0
tp2377
(dp2378
g5
I0
sg6
I0
sg7
I0
sg8
I0
sg9
I0
ss(I1
I0
I1
I2
I0
tp2379
(dp2380
g5
I0
sg6
I0
sg7
I0
sg8
I0
sg9
I0
ss(I1
I1
I1
I2
I1
tp2381
(dp2382
g5
I0
sg6
I0
sg7
I0
sg8
I0
sg9
I0
ss(I2
I0
I0
I1
I0
tp2383
(dp2384
g5
I0
sg6
I0
sg7
I0
sg8
I0
sg9
I0
ss(I0
I0
I2
I2
I1
tp2385
(dp2386
g5
I0
sg6
I0
sg7
I0
sg8
I0
sg9
I0
ss(I1
I0
I0
I1
I0
tp2387
(dp2388
g5
I0
sg6
I0
sg7
I0
sg8
I0
sg9
I0
ss(I0
I0
I2
I1
I1
tp2389
(dp2390
g5
I0
sg6
I0
sg7
I0
sg8
I0
sg9
I0
ss(I1
I1
I0
I0
I0
tp2391
(dp2392
g5
I0
sg6
I0
sg7
I0
sg8
I0
sg9
I0
ss(I2
I1
I2
I0
I0
tp2393
(dp2394
g5
I0
sg6
I0
sg7
I0
sg8
I0
sg9
I0
ss(I2
I2
I2
I2
I0
tp2395
(dp2396
g5
I0
sg6
I0
sg7
I0
sg8
I0
sg9
I0
ss(I1
I2
I2
I0
I1
tp2397
(dp2398
g5
I0
sg6
F616.668514637528
sg7
F572.0419275660404
sg8
F623.1226525294343
sg9
F622.5911157230082
ss(I0
I0
I1
I0
I0
tp2399
(dp2400
g5
I0
sg6
I0
sg7
I0
sg8
I0
sg9
I0
ss(I1
I2
I1
I0
I1
tp2401
(dp2402
g5
I0
sg6
F612.0906715105175
sg7
F573.8864995821759
sg8
F621.4204363599806
sg9
F610.0599183085275
ss(I0
I1
I1
I0
I0
tp2403
(dp2404
g5
I0
sg6
I0
sg7
I0
sg8
I0
sg9
I0
ss(I1
I2
I2
I1
I1
tp2405
(dp2406
g5
I0
sg6
I0
sg7
I0
sg8
I0
sg9
I0
ss(I2
I1
I1
I0
I0
tp2407
(dp2408
g5
I0
sg6
I0
sg7
I0
sg8
I0
sg9
I0
ss(I1
I2
I0
I0
I1
tp2409
(dp2410
g5
I0
sg6
F613.3752811623355
sg7
F571.7965144000786
sg8
F621.331286880175
sg9
F606.1722619850535
ss(I1
I2
I2
I2
I0
tp2411
(dp2412
g5
I0
sg6
I0
sg7
I0
sg8
I0
sg9
I0
ss(I0
I1
I2
I1
I0
tp2413
(dp2414
g5
I0
sg6
I0
sg7
I0
sg8
I0
sg9
I0
ss(I2
I0
I1
I0
I0
tp2415
(dp2416
g5
I0
sg6
I0
sg7
I0
sg8
I0
sg9
I0
ss(I1
I1
I1
I1
I0
tp2417
(dp2418
g5
I0
sg6
I0
sg7
I0
sg8
I0
sg9
I0
ss(I2
I1
I2
I2
I0
tp2419
(dp2420
g5
I0
sg6
I0
sg7
I0
sg8
I0
sg9
I0
ss(I2
I1
I2
I1
I1
tp2421
(dp2422
g5
I0
sg6
I0
sg7
I0
sg8
I0
sg9
I0
ss(I2
I0
I2
I1
I0
tp2423
(dp2424
g5
I0
sg6
I0
sg7
I0
sg8
I0
sg9
I0
ss(I1
I1
I0
I2
I0
tp2425
(dp2426
g5
I0
sg6
I0
sg7
I0
sg8
I0
sg9
I0
ss(I2
I1
I2
I0
I1
tp2427
(dp2428
g5
I0
sg6
F621.8784535761421
sg7
F572.130199284748
sg8
F615.7776706111422
sg9
F621.862252530505
ss(I2
I1
I1
I0
I1
tp2429
(dp2430
g5
I0
sg6
F621.9966160503686
sg7
F576.3362346291219
sg8
F614.4230948464285
sg9
F613.8069734399455
ss(I1
I1
I2
I0
I0
tp2431
(dp2432
g5
I0
sg6
I0
sg7
I0
sg8
I0
sg9
I0
ss(I0
I0
I1
I0
I1
tp2433
(dp2434
g5
I0
sg6
F604.5217870053858
sg7
F527.594743153715
sg8
F609.5701091102535
sg9
F612.4024570944744
ss(I0
I0
I2
I2
I0
tp2435
(dp2436
g5
I0
sg6
I0
sg7
I0
sg8
I0
sg9
I0
ss(I1
I1
I0
I0
I1
tp2437
(dp2438
g5
I0
sg6
F618.4105155025354
sg7
F573.7680857600103
sg8
F617.8641859611267
sg9
F607.6694763144619
ss(I0
I1
I0
I0
I1
tp2439
(dp2440
g5
I0
sg6
F609.4152609867036
sg7
F581.0766708198944
sg8
F618.2077598797268
sg9
F608.600433836314
ss(I1
I2
I2
I0
I0
tp2441
(dp2442
g5
I0
sg6
I0
sg7
I0
sg8
I0
sg9
I0
ss(I2
I1
I0
I0
I0
tp2443
(dp2444
g5
I0
sg6
I0
sg7
I0
sg8
I0
sg9
I0
ss(I2
I1
I2
I2
I1
tp2445
(dp2446
g5
I0
sg6
I0
sg7
I0
sg8
I0
sg9
I0
ss(I1
I2
I1
I0
I0
tp2447
(dp2448
g5
I0
sg6
I0
sg7
I0
sg8
I0
sg9
I0
ss(I2
I0
I0
I0
I1
tp2449
(dp2450
g5
I0
sg6
F600.499566446032
sg7
F404.4259168861346
sg8
F386.2457689081682
sg9
F451.01959495936296
ss(I1
I2
I2
I1
I0
tp2451
(dp2452
g5
I0
sg6
I0
sg7
I0
sg8
I0
sg9
I0
ss(I0
I2
I2
I1
I0
tp2453
(dp2454
g5
I0
sg6
I0
sg7
I0
sg8
I0
sg9
I0
ss(I2
I0
I1
I0
I1
tp2455
(dp2456
g5
I0
sg6
F606.3067588187624
sg7
F518.3734623055859
sg8
F598.3505581911963
sg9
F589.0464261323574
ss(I2
I1
I2
I1
I0
tp2457
(dp2458
g5
I0
sg6
I0
sg7
I0
sg8
I0
sg9
I0
ss(I1
I0
I0
I0
I0
tp2459
(dp2460
g5
I0
sg6
I0
sg7
I0
sg8
I0
sg9
I0
ss(I0
I0
I0
I2
I0
tp2461
(dp2462
g5
I0
sg6
I0
sg7
I0
sg8
I0
sg9
I0
ss(I2
I2
I1
I2
I0
tp2463
(dp2464
g5
I0
sg6
I0
sg7
I0
sg8
I0
sg9
I0
ss(I0
I2
I1
I1
I0
tp2465
(dp2466
g5
I0
sg6
I0
sg7
I0
sg8
I0
sg9
I0
ss(I2
I2
I0
I1
I0
tp2467
(dp2468
g5
I0
sg6
I0
sg7
I0
sg8
I0
sg9
I0
ss(I1
I1
I2
I0
I1
tp2469
(dp2470
g5
I0
sg6
F618.0974155153116
sg7
F575.7427743601354
sg8
F616.147831496692
sg9
F625.1477851533584
ss(I2
I1
I0
I0
I1
tp2471
(dp2472
g5
I0
sg6
F619.5628443295344
sg7
F569.6844506314851
sg8
F604.038999077263
sg9
F597.0349140435076
ss(I0
I1
I0
I2
I1
tp2473
(dp2474
g5
I0
sg6
I0
sg7
I0
sg8
I0
sg9
I0
ss(I0
I1
I1
I1
I0
tp2475
(dp2476
g5
I0
sg6
I0
sg7
I0
sg8
I0
sg9
I0
ss(I0
I1
I0
I0
I0
tp2477
(dp2478
g5
I0
sg6
I0
sg7
I0
sg8
I0
sg9
I0
ss(I0
I2
I0
I0
I1
tp2479
(dp2480
g5
I0
sg6
F601.6049829100193
sg7
F569.5329275464729
sg8
F623.9649925297048
sg9
F599.3700594752395
ss(I0
I1
I2
I0
I0
tp2481
(dp2482
g5
I0
sg6
I0
sg7
I0
sg8
I0
sg9
I0
ss(I1
I1
I1
I0
I0
tp2483
(dp2484
g5
I0
sg6
I0
sg7
I0
sg8
I0
sg9
I0
ss(I1
I0
I2
I1
I1
tp2485
(dp2486
g5
I0
sg6
I0
sg7
I0
sg8
I0
sg9
I0
ss(I2
I0
I0
I0
I0
tp2487
(dp2488
g5
I0
sg6
I0
sg7
I0
sg8
I0
sg9
I0
ss(I1
I1
I2
I1
I0
tp2489
(dp2490
g5
I0
sg6
I0
sg7
I0
sg8
I0
sg9
I0
ss(I1
I0
I2
I0
I0
tp2491
(dp2492
g5
I0
sg6
I0
sg7
I0
sg8
I0
sg9
I0
ss(I1
I0
I1
I0
I1
tp2493
(dp2494
g5
I0
sg6
F608.9489036583152
sg7
F553.2248033103157
sg8
F606.9279890218877
sg9
F602.409512822792
ss(I0
I2
I2
I1
I1
tp2495
(dp2496
g5
I0
sg6
I0
sg7
I0
sg8
I0
sg9
I0
ss(I2
I2
I0
I2
I1
tp2497
(dp2498
g5
I0
sg6
I0
sg7
I0
sg8
I0
sg9
I0
ss(I0
I2
I0
I2
I0
tp2499
(dp2500
g5
I0
sg6
I0
sg7
I0
sg8
I0
sg9
I0
ss(I2
I2
I1
I1
I1
tp2501
(dp2502
g5
I0
sg6
I0
sg7
I0
sg8
I0
sg9
I0
ss(I1
I0
I0
I0
I1
tp2503
(dp2504
g5
I0
sg6
F616.9968187138242
sg7
F548.2895811468491
sg8
F555.4590079282924
sg9
F584.5939429989907
ss(I2
I1
I0
I2
I0
tp2505
(dp2506
g5
I0
sg6
I0
sg7
I0
sg8
I0
sg9
I0
ss(I0
I2
I2
I2
I0
tp2507
(dp2508
g5
I0
sg6
I0
sg7
I0
sg8
I0
sg9
I0
ss(I0
I2
I2
I2
I1
tp2509
(dp2510
g5
I0
sg6
I0
sg7
I0
sg8
I0
sg9
I0
ss(I2
I2
I0
I1
I1
tp2511
(dp2512
g5
I0
sg6
I0
sg7
I0
sg8
I0
sg9
I0
ss(I2
I0
I2
I2
I1
tp2513
(dp2514
g5
I0
sg6
I0
sg7
I0
sg8
I0
sg9
I0
ss(I0
I1
I0
I1
I1
tp2515
(dp2516
g5
I0
sg6
I0
sg7
I0
sg8
I0
sg9
I0
ss(I1
I2
I1
I1
I0
tp2517
(dp2518
g5
I0
sg6
I0
sg7
I0
sg8
I0
sg9
I0
ss(I0
I1
I0
I2
I0
tp2519
(dp2520
g5
I0
sg6
I0
sg7
I0
sg8
I0
sg9
I0
ss(I0
I1
I1
I2
I1
tp2521
(dp2522
g5
I0
sg6
I0
sg7
I0
sg8
I0
sg9
I0
ss(I1
I1
I2
I2
I1
tp2523
(dp2524
g5
I0
sg6
I0
sg7
I0
sg8
I0
sg9
I0
ss(I0
I1
I1
I1
I1
tp2525
(dp2526
g5
I0
sg6
I0
sg7
I0
sg8
I0
sg9
I0
ss(I1
I2
I0
I2
I0
tp2527
(dp2528
g5
I0
sg6
I0
sg7
I0
sg8
I0
sg9
I0
ss(I0
I0
I2
I0
I0
tp2529
(dp2530
g5
I0
sg6
I0
sg7
I0
sg8
I0
sg9
I0
ss(I0
I2
I0
I0
I0
tp2531
(dp2532
g5
I0
sg6
I0
sg7
I0
sg8
I0
sg9
I0
ss(I0
I1
I2
I0
I1
tp2533
(dp2534
g5
I0
sg6
F609.1593766036264
sg7
F576.8734213739796
sg8
F615.8268323414914
sg9
F619.5777675046785
ss(I1
I1
I1
I0
I1
tp2535
(dp2536
g5
I0
sg6
F616.4905371491956
sg7
F579.892999521313
sg8
F616.7359392431515
sg9
F616.2485214022104
ss(I0
I0
I0
I2
I1
tp2537
(dp2538
g5
I0
sg6
I0
sg7
I0
sg8
I0
sg9
I0
ss(I1
I0
I2
I1
I0
tp2539
(dp2540
g5
I0
sg6
I0
sg7
I0
sg8
I0
sg9
I0
ss(I1
I1
I2
I1
I1
tp2541
(dp2542
g5
I0
sg6
I0
sg7
I0
sg8
I0
sg9
I0
ss(I0
I0
I1
I1
I1
tp2543
(dp2544
g5
I0
sg6
I0
sg7
I0
sg8
I0
sg9
I0
ss(I1
I0
I1
I0
I0
tp2545
(dp2546
g5
I0
sg6
I0
sg7
I0
sg8
I0
sg9
I0
ss(I0
I0
I1
I2
I1
tp2547
(dp2548
g5
I0
sg6
I0
sg7
I0
sg8
I0
sg9
I0
ss(I2
I0
I2
I2
I0
tp2549
(dp2550
g5
I0
sg6
I0
sg7
I0
sg8
I0
sg9
I0
ss(I0
I2
I0
I2
I1
tp2551
(dp2552
g5
I0
sg6
I0
sg7
I0
sg8
I0
sg9
I0
ss(I0
I0
I0
I0
I1
tp2553
(dp2554
g5
I0
sg6
F605.0972221140273
sg7
F557.0560587825227
sg8
F610.5882276298883
sg9
F601.256151500354
ss(I2
I2
I1
I1
I0
tp2555
(dp2556
g5
I0
sg6
I0
sg7
I0
sg8
I0
sg9
I0
ss(I0
I0
I0
I0
I0
tp2557
(dp2558
g5
I0
sg6
I0
sg7
I0
sg8
I0
sg9
I0
ss(I2
I2
I0
I2
I0
tp2559
(dp2560
g5
I0
sg6
I0
sg7
I0
sg8
I0
sg9
I0
ss(I1
I2
I0
I1
I1
tp2561
(dp2562
g5
I0
sg6
I0
sg7
I0
sg8
I0
sg9
I0
ss(I2
I0
I1
I1
I0
tp2563
(dp2564
g5
I0
sg6
I0
sg7
I0
sg8
I0
sg9
I0
ss(I0
I1
I0
I1
I0
tp2565
(dp2566
g5
I0
sg6
I0
sg7
I0
sg8
I0
sg9
I0
ss(I1
I2
I1
I2
I1
tp2567
(dp2568
g5
I0
sg6
I0
sg7
I0
sg8
I0
sg9
I0
ss(I1
I2
I1
I1
I1
tp2569
(dp2570
g5
I0
sg6
I0
sg7
I0
sg8
I0
sg9
I0
ss(I0
I2
I1
I0
I0
tp2571
(dp2572
g5
I0
sg6
I0
sg7
I0
sg8
I0
sg9
I0
ss(I0
I1
I1
I2
I0
tp2573
(dp2574
g5
I0
sg6
I0
sg7
I0
sg8
I0
sg9
I0
ss(I0
I0
I0
I1
I0
tp2575
(dp2576
g5
I0
sg6
I0
sg7
I0
sg8
I0
sg9
I0
ss(I1
I1
I2
I2
I0
tp2577
(dp2578
g5
I0
sg6
I0
sg7
I0
sg8
I0
sg9
I0
ss(I1
I2
I0
I2
I1
tp2579
(dp2580
g5
I0
sg6
I0
sg7
I0
sg8
I0
sg9
I0
ss(I2
I1
I1
I2
I1
tp2581
(dp2582
g5
I0
sg6
I0
sg7
I0
sg8
I0
sg9
I0
ss(I2
I0
I1
I2
I0
tp2583
(dp2584
g5
I0
sg6
I0
sg7
I0
sg8
I0
sg9
I0
ss(I2
I1
I0
I1
I1
tp2585
(dp2586
g5
I0
sg6
I0
sg7
I0
sg8
I0
sg9
I0
ss(I1
I2
I0
I1
I0
tp2587
(dp2588
g5
I0
sg6
I0
sg7
I0
sg8
I0
sg9
I0
ss(I2
I2
I2
I0
I1
tp2589
(dp2590
g5
I0
sg6
F621.432398715802
sg7
F575.4789501808267
sg8
F620.9024046632128
sg9
F621.304545521842
ss(I2
I1
I0
I2
I1
tp2591
(dp2592
g5
I0
sg6
I0
sg7
I0
sg8
I0
sg9
I0
ss(I0
I2
I1
I2
I0
tp2593
(dp2594
g5
I0
sg6
I0
sg7
I0
sg8
I0
sg9
I0
ss(I0
I0
I1
I1
I0
tp2595
(dp2596
g5
I0
sg6
I0
sg7
I0
sg8
I0
sg9
I0
ss(I2
I2
I0
I0
I0
tp2597
(dp2598
g5
I0
sg6
I0
sg7
I0
sg8
I0
sg9
I0
ss(I0
I2
I1
I0
I1
tp2599
(dp2600
g5
I0
sg6
F606.1972535330408
sg7
F566.9583323603332
sg8
F617.5762395120076
sg9
F611.0822307768866
ss(I2
I0
I0
I2
I0
tp2601
(dp2602
g5
I0
sg6
I0
sg7
I0
sg8
I0
sg9
I0
ss(I0
I0
I0
I1
I1
tp2603
(dp2604
g5
I0
sg6
I0
sg7
I0
sg8
I0
sg9
I0
ss(I0
I0
I1
I2
I0
tp2605
(dp2606
g5
I0
sg6
I0
sg7
I0
sg8
I0
sg9
I0
ss(I1
I0
I2
I0
I1
tp2607
(dp2608
g5
I0
sg6
F590.2370221346958
sg7
F487.83792269619164
sg8
F588.589166545765
sg9
F613.3505896965344
ssa(dp2609
(I0
I2
I0
I1
I0
tp2610
(dp2611
g5
I0
sg6
I0
sg7
I0
sg8
I0
sg9
I0
ss(I2
I0
I1
I1
I1
tp2612
(dp2613
g5
I0
sg6
I0
sg7
I0
sg8
I0
sg9
I0
ss(I1
I2
I1
I2
I0
tp2614
(dp2615
g5
I0
sg6
I0
sg7
I0
sg8
I0
sg9
I0
ss(I2
I2
I2
I0
I0
tp2616
(dp2617
g5
I0
sg6
I0
sg7
I0
sg8
I0
sg9
I0
ss(I2
I0
I2
I0
I1
tp2618
(dp2619
g5
I0
sg6
F4.000000000601953
sg7
F-37.98391438358173
sg8
F-7.816081974379161
sg9
F4.000000000000087
ss(I1
I0
I0
I2
I0
tp2620
(dp2621
g5
I0
sg6
I0
sg7
I0
sg8
I0
sg9
I0
ss(I2
I0
I0
I1
I1
tp2622
(dp2623
g5
I0
sg6
I0
sg7
I0
sg8
I0
sg9
I0
ss(I2
I1
I1
I1
I0
tp2624
(dp2625
g5
I0
sg6
I0
sg7
I0
sg8
I0
sg9
I0
ss(I0
I2
I1
I2
I1
tp2626
(dp2627
g5
I0
sg6
I0
sg7
I0
sg8
I0
sg9
I0
ss(I2
I1
I1
I2
I0
tp2628
(dp2629
g5
I0
sg6
I0
sg7
I0
sg8
I0
sg9
I0
ss(I1
I0
I1
I1
I0
tp2630
(dp2631
g5
I0
sg6
I0
sg7
I0
sg8
I0
sg9
I0
ss(I2
I0
I1
I2
I1
tp2632
(dp2633
g5
I0
sg6
I0
sg7
I0
sg8
I0
sg9
I0
ss(I2
I2
I2
I1
I0
tp2634
(dp2635
g5
I0
sg6
I0
sg7
I0
sg8
I0
sg9
I0
ss(I2
I1
I0
I1
I0
tp2636
(dp2637
g5
I0
sg6
I0
sg7
I0
sg8
I0
sg9
I0
ss(I2
I2
I1
I0
I0
tp2638
(dp2639
g5
I0
sg6
I0
sg7
I0
sg8
I0
sg9
I0
ss(I0
I1
I2
I2
I0
tp2640
(dp2641
g5
I0
sg6
I0
sg7
I0
sg8
I0
sg9
I0
ss(I2
I2
I2
I2
I1
tp2642
(dp2643
g5
I0
sg6
I0
sg7
I0
sg8
I0
sg9
I0
ss(I1
I0
I2
I2
I1
tp2644
(dp2645
g5
I0
sg6
I0
sg7
I0
sg8
I0
sg9
I0
ss(I0
I2
I1
I1
I1
tp2646
(dp2647
g5
I0
sg6
I0
sg7
I0
sg8
I0
sg9
I0
ss(I2
I0
I0
I2
I1
tp2648
(dp2649
g5
I0
sg6
I0
sg7
I0
sg8
I0
sg9
I0
ss(I2
I1
I1
I1
I1
tp2650
(dp2651
g5
I0
sg6
I0
sg7
I0
sg8
I0
sg9
I0
ss(I1
I1
I0
I1
I0
tp2652
(dp2653
g5
I0
sg6
I0
sg7
I0
sg8
I0
sg9
I0
ss(I0
I2
I2
I0
I1
tp2654
(dp2655
g5
I0
sg6
F-7.9995479640842575
sg7
F-37.99978504049217
sg8
F4.000000000000002
sg9
F4.000000000000002
ss(I2
I2
I1
I2
I1
tp2656
(dp2657
g5
I0
sg6
I0
sg7
I0
sg8
I0
sg9
I0
ss(I1
I0
I1
I2
I1
tp2658
(dp2659
g5
I0
sg6
I0
sg7
I0
sg8
I0
sg9
I0
ss(I0
I2
I0
I1
I1
tp2660
(dp2661
g5
I0
sg6
I0
sg7
I0
sg8
I0
sg9
I0
ss(I1
I1
I1
I2
I0
tp2662
(dp2663
g5
I0
sg6
I0
sg7
I0
sg8
I0
sg9
I0
ss(I1
I0
I0
I1
I1
tp2664
(dp2665
g5
I0
sg6
I0
sg7
I0
sg8
I0
sg9
I0
ss(I2
I0
I2
I0
I0
tp2666
(dp2667
g5
I0
sg6
I0
sg7
I0
sg8
I0
sg9
I0
ss(I0
I0
I2
I1
I0
tp2668
(dp2669
g5
I0
sg6
I0
sg7
I0
sg8
I0
sg9
I0
ss(I1
I0
I0
I2
I1
tp2670
(dp2671
g5
I0
sg6
I0
sg7
I0
sg8
I0
sg9
I0
ss(I2
I2
I0
I0
I1
tp2672
(dp2673
g5
I0
sg6
F4.000000000000002
sg7
F-37.99838962205017
sg8
F4.000001258492551
sg9
F-7.9999547453667725
ss(I1
I0
I1
I1
I1
tp2674
(dp2675
g5
I0
sg6
I0
sg7
I0
sg8
I0
sg9
I0
ss(I2
I2
I2
I1
I1
tp2676
(dp2677
g5
I0
sg6
I0
sg7
I0
sg8
I0
sg9
I0
ss(I2
I2
I1
I0
I1
tp2678
(dp2679
g5
I0
sg6
F2.000000000000001
sg7
F-39.999999999999865
sg8
F2.000000000000001
sg9
F-3.999999362888129
ss(I0
I0
I2
I0
I1
tp2680
(dp2681
g5
I0
sg6
F-3.9500845622243865
sg7
F-33.99999999724399
sg8
F-3.999999999999999
sg9
F8.000000000000004
ss(I1
I2
I2
I2
I1
tp2682
(dp2683
g5
I0
sg6
I0
sg7
I0
sg8
I0
sg9
I0
ss(I0
I1
I1
I0
I1
tp2684
(dp2685
g5
I0
sg6
F-3.976220313883083
sg7
F-33.99999999121529
sg8
F2.089148425334858
sg9
F2.029219594085628
ss(I1
I2
I0
I0
I0
tp2686
(dp2687
g5
I0
sg6
I0
sg7
I0
sg8
I0
sg9
I0
ss(I0
I1
I2
I1
I1
tp2688
(dp2689
g5
I0
sg6
I0
sg7
I0
sg8
I0
sg9
I0
ss(I1
I1
I1
I1
I1
tp2690
(dp2691
g5
I0
sg6
I0
sg7
I0
sg8
I0
sg9
I0
ss(I0
I1
I2
I2
I1
tp2692
(dp2693
g5
I0
sg6
I0
sg7
I0
sg8
I0
sg9
I0
ss(I1
I0
I2
I2
I0
tp2694
(dp2695
g5
I0
sg6
I0
sg7
I0
sg8
I0
sg9
I0
ss(I1
I1
I0
I2
I1
tp2696
(dp2697
g5
I0
sg6
I0
sg7
I0
sg8
I0
sg9
I0
ss(I1
I1
I0
I1
I1
tp2698
(dp2699
g5
I0
sg6
I0
sg7
I0
sg8
I0
sg9
I0
ss(I2
I0
I2
I1
I1
tp2700
(dp2701
g5
I0
sg6
I0
sg7
I0
sg8
I0
sg9
I0
ss(I0
I2
I2
I0
I0
tp2702
(dp2703
g5
I0
sg6
I0
sg7
I0
sg8
I0
sg9
I0
ss(I1
I0
I1
I2
I0
tp2704
(dp2705
g5
I0
sg6
I0
sg7
I0
sg8
I0
sg9
I0
ss(I1
I1
I1
I2
I1
tp2706
(dp2707
g5
I0
sg6
I0
sg7
I0
sg8
I0
sg9
I0
ss(I2
I0
I0
I1
I0
tp2708
(dp2709
g5
I0
sg6
I0
sg7
I0
sg8
I0
sg9
I0
ss(I0
I0
I2
I2
I1
tp2710
(dp2711
g5
I0
sg6
I0
sg7
I0
sg8
I0
sg9
I0
ss(I1
I0
I0
I1
I0
tp2712
(dp2713
g5
I0
sg6
I0
sg7
I0
sg8
I0
sg9
I0
ss(I0
I0
I2
I1
I1
tp2714
(dp2715
g5
I0
sg6
I0
sg7
I0
sg8
I0
sg9
I0
ss(I1
I1
I0
I0
I0
tp2716
(dp2717
g5
I0
sg6
I0
sg7
I0
sg8
I0
sg9
I0
ss(I2
I1
I2
I0
I0
tp2718
(dp2719
g5
I0
sg6
I0
sg7
I0
sg8
I0
sg9
I0
ss(I2
I2
I2
I2
I0
tp2720
(dp2721
g5
I0
sg6
I0
sg7
I0
sg8
I0
sg9
I0
ss(I1
I2
I2
I0
I1
tp2722
(dp2723
g5
I0
sg6
F-3.999973182237179
sg7
F-39.99866189146866
sg8
F2.0002018476890866
sg9
F2.000000424741243
ss(I0
I0
I1
I0
I0
tp2724
(dp2725
g5
I0
sg6
I0
sg7
I0
sg8
I0
sg9
I0
ss(I1
I2
I1
I0
I1
tp2726
(dp2727
g5
I0
sg6
F-1.999981074675636
sg7
F-37.999988686341574
sg8
F4.7500002359681135
sg9
F-1.9325018377162608
ss(I0
I1
I1
I0
I0
tp2728
(dp2729
g5
I0
sg6
I0
sg7
I0
sg8
I0
sg9
I0
ss(I1
I2
I2
I1
I1
tp2730
(dp2731
g5
I0
sg6
I0
sg7
I0
sg8
I0
sg9
I0
ss(I2
I1
I1
I0
I0
tp2732
(dp2733
g5
I0
sg6
I0
sg7
I0
sg8
I0
sg9
I0
ss(I1
I2
I0
I0
I1
tp2734
(dp2735
g5
I0
sg6
F1.5891887663625703e-05
sg7
F-35.99978834297063
sg8
F6.015838187211271
sg9
F-5.993657570060857
ss(I1
I2
I2
I2
I0
tp2736
(dp2737
g5
I0
sg6
I0
sg7
I0
sg8
I0
sg9
I0
ss(I0
I1
I2
I1
I0
tp2738
(dp2739
g5
I0
sg6
I0
sg7
I0
sg8
I0
sg9
I0
ss(I2
I0
I1
I0
I0
tp2740
(dp2741
g5
I0
sg6
I0
sg7
I0
sg8
I0
sg9
I0
ss(I1
I1
I1
I1
I0
tp2742
(dp2743
g5
I0
sg6
I0
sg7
I0
sg8
I0
sg9
I0
ss(I2
I1
I2
I2
I0
tp2744
(dp2745
g5
I0
sg6
I0
sg7
I0
sg8
I0
sg9
I0
ss(I2
I1
I2
I1
I1
tp2746
(dp2747
g5
I0
sg6
I0
sg7
I0
sg8
I0
sg9
I0
ss(I2
I0
I2
I1
I0
tp2748
(dp2749
g5
I0
sg6
I0
sg7
I0
sg8
I0
sg9
I0
ss(I1
I1
I0
I2
I0
tp2750
(dp2751
g5
I0
sg6
I0
sg7
I0
sg8
I0
sg9
I0
ss(I2
I1
I2
I0
I1
tp2752
(dp2753
g5
I0
sg6
F2.000000000000001
sg7
F-39.99999999999998
sg8
F-3.999999999999996
sg9
F2.0000021227336826
ss(I2
I1
I1
I0
I1
tp2754
(dp2755
g5
I0
sg6
F4.000000000586441
sg7
F-37.99999999999993
sg8
F-1.979786491428067
sg9
F-1.9999964202877916
ss(I1
I1
I2
I0
I0
tp2756
(dp2757
g5
I0
sg6
I0
sg7
I0
sg8
I0
sg9
I0
ss(I0
I0
I1
I0
I1
tp2758
(dp2759
g5
I0
sg6
F-1.6710833061220334
sg7
F-31.996816859607566
sg8
F-1.2499999999969884
sg9
F4.0000007926565715
ss(I0
I0
I2
I2
I0
tp2760
(dp2761
g5
I0
sg6
I0
sg7
I0
sg8
I0
sg9
I0
ss(I1
I1
I0
I0
I1
tp2762
(dp2763
g5
I0
sg6
F2.0000000001014024
sg7
F-33.99999999999614
sg8
F2.000001414207288
sg9
F-3.9999999999999956
ss(I0
I1
I0
I0
I1
tp2764
(dp2765
g5
I0
sg6
F-1.9998744344371462
sg7
F-31.996525197887582
sg8
F4.000315136170318
sg9
F-1.9854866585414745
ss(I1
I2
I2
I0
I0
tp2766
(dp2767
g5
I0
sg6
I0
sg7
I0
sg8
I0
sg9
I0
ss(I2
I1
I0
I0
I0
tp2768
(dp2769
g5
I0
sg6
I0
sg7
I0
sg8
I0
sg9
I0
ss(I2
I1
I2
I2
I1
tp2770
(dp2771
g5
I0
sg6
I0
sg7
I0
sg8
I0
sg9
I0
ss(I1
I2
I1
I0
I0
tp2772
(dp2773
g5
I0
sg6
I0
sg7
I0
sg8
I0
sg9
I0
ss(I2
I0
I0
I0
I1
tp2774
(dp2775
g5
I0
sg6
F8.031240329973034
sg7
F-33.992255889945326
sg8
F-3.99946425372949
sg9
F-3.999969830244515
ss(I1
I2
I2
I1
I0
tp2776
(dp2777
g5
I0
sg6
I0
sg7
I0
sg8
I0
sg9
I0
ss(I0
I2
I2
I1
I0
tp2778
(dp2779
g5
I0
sg6
I0
sg7
I0
sg8
I0
sg9
I0
ss(I2
I0
I1
I0
I1
tp2780
(dp2781
g5
I0
sg6
F6.0000678494083575
sg7
F-35.999992294130976
sg8
F-5.999992456535351
sg9
F0.00677269764769138
ss(I2
I1
I2
I1
I0
tp2782
(dp2783
g5
I0
sg6
I0
sg7
I0
sg8
I0
sg9
I0
ss(I1
I0
I0
I0
I0
tp2784
(dp2785
g5
I0
sg6
I0
sg7
I0
sg8
I0
sg9
I0
ss(I0
I0
I0
I2
I0
tp2786
(dp2787
g5
I0
sg6
I0
sg7
I0
sg8
I0
sg9
I0
ss(I2
I2
I1
I2
I0
tp2788
(dp2789
g5
I0
sg6
I0
sg7
I0
sg8
I0
sg9
I0
ss(I0
I2
I1
I1
I0
tp2790
(dp2791
g5
I0
sg6
I0
sg7
I0
sg8
I0
sg9
I0
ss(I2
I2
I0
I1
I0
tp2792
(dp2793
g5
I0
sg6
I0
sg7
I0
sg8
I0
sg9
I0
ss(I1
I1
I2
I0
I1
tp2794
(dp2795
g5
I0
sg6
F-1.999999976081328
sg7
F-37.99982893826877
sg8
F-1.997312369749148
sg9
F4.000000000000002
ss(I2
I1
I0
I0
I1
tp2796
(dp2797
g5
I0
sg6
F6.000001885609819
sg7
F-35.99996375541399
sg8
F0.0
sg9
F-5.999919547318707
ss(I0
I1
I0
I2
I1
tp2798
(dp2799
g5
I0
sg6
I0
sg7
I0
sg8
I0
sg9
I0
ss(I0
I1
I1
I1
I0
tp2800
(dp2801
g5
I0
sg6
I0
sg7
I0
sg8
I0
sg9
I0
ss(I0
I1
I0
I0
I0
tp2802
(dp2803
g5
I0
sg6
I0
sg7
I0
sg8
I0
sg9
I0
ss(I0
I2
I0
I0
I1
tp2804
(dp2805
g5
I0
sg6
F-3.999997588128413
sg7
F-33.7187311651497
sg8
F8.000000385520686
sg9
F-3.999999744016752
ss(I0
I1
I2
I0
I0
tp2806
(dp2807
g5
I0
sg6
I0
sg7
I0
sg8
I0
sg9
I0
ss(I1
I1
I1
I0
I0
tp2808
(dp2809
g5
I0
sg6
I0
sg7
I0
sg8
I0
sg9
I0
ss(I1
I0
I2
I1
I1
tp2810
(dp2811
g5
I0
sg6
I0
sg7
I0
sg8
I0
sg9
I0
ss(I2
I0
I0
I0
I0
tp2812
(dp2813
g5
I0
sg6
I0
sg7
I0
sg8
I0
sg9
I0
ss(I1
I1
I2
I1
I0
tp2814
(dp2815
g5
I0
sg6
I0
sg7
I0
sg8
I0
sg9
I0
ss(I1
I0
I2
I0
I0
tp2816
(dp2817
g5
I0
sg6
I0
sg7
I0
sg8
I0
sg9
I0
ss(I1
I0
I1
I0
I1
tp2818
(dp2819
g5
I0
sg6
F2.0000000212670574
sg7
F-33.91085161455254
sg8
F-3.762687652126812
sg9
F2.000000000554372
ss(I0
I2
I2
I1
I1
tp2820
(dp2821
g5
I0
sg6
I0
sg7
I0
sg8
I0
sg9
I0
ss(I2
I2
I0
I2
I1
tp2822
(dp2823
g5
I0
sg6
I0
sg7
I0
sg8
I0
sg9
I0
ss(I0
I2
I0
I2
I0
tp2824
(dp2825
g5
I0
sg6
I0
sg7
I0
sg8
I0
sg9
I0
ss(I2
I2
I1
I1
I1
tp2826
(dp2827
g5
I0
sg6
I0
sg7
I0
sg8
I0
sg9
I0
ss(I1
I0
I0
I0
I1
tp2828
(dp2829
g5
I0
sg6
F4.000000000003812
sg7
F-31.998114270778743
sg8
F-1.9999982100929925
sg9
F-1.923577415506459
ss(I2
I1
I0
I2
I0
tp2830
(dp2831
g5
I0
sg6
I0
sg7
I0
sg8
I0
sg9
I0
ss(I0
I2
I2
I2
I0
tp2832
(dp2833
g5
I0
sg6
I0
sg7
I0
sg8
I0
sg9
I0
ss(I0
I2
I2
I2
I1
tp2834
(dp2835
g5
I0
sg6
I0
sg7
I0
sg8
I0
sg9
I0
ss(I2
I2
I0
I1
I1
tp2836
(dp2837
g5
I0
sg6
I0
sg7
I0
sg8
I0
sg9
I0
ss(I2
I0
I2
I2
I1
tp2838
(dp2839
g5
I0
sg6
I0
sg7
I0
sg8
I0
sg9
I0
ss(I0
I1
I0
I1
I1
tp2840
(dp2841
g5
I0
sg6
I0
sg7
I0
sg8
I0
sg9
I0
ss(I1
I2
I1
I1
I0
tp2842
(dp2843
g5
I0
sg6
I0
sg7
I0
sg8
I0
sg9
I0
ss(I0
I1
I0
I2
I0
tp2844
(dp2845
g5
I0
sg6
I0
sg7
I0
sg8
I0
sg9
I0
ss(I0
I1
I1
I2
I1
tp2846
(dp2847
g5
I0
sg6
I0
sg7
I0
sg8
I0
sg9
I0
ss(I1
I1
I2
I2
I1
tp2848
(dp2849
g5
I0
sg6
I0
sg7
I0
sg8
I0
sg9
I0
ss(I0
I1
I1
I1
I1
tp2850
(dp2851
g5
I0
sg6
I0
sg7
I0
sg8
I0
sg9
I0
ss(I1
I2
I0
I2
I0
tp2852
(dp2853
g5
I0
sg6
I0
sg7
I0
sg8
I0
sg9
I0
ss(I0
I0
I2
I0
I0
tp2854
(dp2855
g5
I0
sg6
I0
sg7
I0
sg8
I0
sg9
I0
ss(I0
I2
I0
I0
I0
tp2856
(dp2857
g5
I0
sg6
I0
sg7
I0
sg8
I0
sg9
I0
ss(I0
I1
I2
I0
I1
tp2858
(dp2859
g5
I0
sg6
F-5.999999999999998
sg7
F-35.43739950091718
sg8
F1.889878865334666e-08
sg9
F6.000123950738718
ss(I1
I1
I1
I0
I1
tp2860
(dp2861
g5
I0
sg6
F0.0388090947709179
sg7
F-35.99999999787107
sg8
F1.8832802816584064e-13
sg9
F0.00021165537694235793
ss(I0
I0
I0
I2
I1
tp2862
(dp2863
g5
I0
sg6
I0
sg7
I0
sg8
I0
sg9
I0
ss(I1
I0
I2
I1
I0
tp2864
(dp2865
g5
I0
sg6
I0
sg7
I0
sg8
I0
sg9
I0
ss(I1
I1
I2
I1
I1
tp2866
(dp2867
g5
I0
sg6
I0
sg7
I0
sg8
I0
sg9
I0
ss(I0
I0
I1
I1
I1
tp2868
(dp2869
g5
I0
sg6
I0
sg7
I0
sg8
I0
sg9
I0
ss(I1
I0
I1
I0
I0
tp2870
(dp2871
g5
I0
sg6
I0
sg7
I0
sg8
I0
sg9
I0
ss(I0
I0
I1
I2
I1
tp2872
(dp2873
g5
I0
sg6
I0
sg7
I0
sg8
I0
sg9
I0
ss(I2
I0
I2
I2
I0
tp2874
(dp2875
g5
I0
sg6
I0
sg7
I0
sg8
I0
sg9
I0
ss(I0
I2
I0
I2
I1
tp2876
(dp2877
g5
I0
sg6
I0
sg7
I0
sg8
I0
sg9
I0
ss(I0
I0
I0
I0
I1
tp2878
(dp2879
g5
I0
sg6
F1.005671381298181e-05
sg7
F-29.99999999999999
sg8
F0.00830389874014615
sg9
F1.477755719803806e-10
ss(I2
I2
I1
I1
I0
tp2880
(dp2881
g5
I0
sg6
I0
sg7
I0
sg8
I0
sg9
I0
ss(I0
I0
I0
I0
I0
tp2882
(dp2883
g5
I0
sg6
I0
sg7
I0
sg8
I0
sg9
I0
ss(I2
I2
I0
I2
I0
tp2884
(dp2885
g5
I0
sg6
I0
sg7
I0
sg8
I0
sg9
I0
ss(I1
I2
I0
I1
I1
tp2886
(dp2887
g5
I0
sg6
I0
sg7
I0
sg8
I0
sg9
I0
ss(I2
I0
I1
I1
I0
tp2888
(dp2889
g5
I0
sg6
I0
sg7
I0
sg8
I0
sg9
I0
ss(I0
I1
I0
I1
I0
tp2890
(dp2891
g5
I0
sg6
I0
sg7
I0
sg8
I0
sg9
I0
ss(I1
I2
I1
I2
I1
tp2892
(dp2893
g5
I0
sg6
I0
sg7
I0
sg8
I0
sg9
I0
ss(I1
I2
I1
I1
I1
tp2894
(dp2895
g5
I0
sg6
I0
sg7
I0
sg8
I0
sg9
I0
ss(I0
I2
I1
I0
I0
tp2896
(dp2897
g5
I0
sg6
I0
sg7
I0
sg8
I0
sg9
I0
ss(I0
I1
I1
I2
I0
tp2898
(dp2899
g5
I0
sg6
I0
sg7
I0
sg8
I0
sg9
I0
ss(I0
I0
I0
I1
I0
tp2900
(dp2901
g5
I0
sg6
I0
sg7
I0
sg8
I0
sg9
I0
ss(I1
I1
I2
I2
I0
tp2902
(dp2903
g5
I0
sg6
I0
sg7
I0
sg8
I0
sg9
I0
ss(I1
I2
I0
I2
I1
tp2904
(dp2905
g5
I0
sg6
I0
sg7
I0
sg8
I0
sg9
I0
ss(I2
I1
I1
I2
I1
tp2906
(dp2907
g5
I0
sg6
I0
sg7
I0
sg8
I0
sg9
I0
ss(I2
I0
I1
I2
I0
tp2908
(dp2909
g5
I0
sg6
I0
sg7
I0
sg8
I0
sg9
I0
ss(I2
I1
I0
I1
I1
tp2910
(dp2911
g5
I0
sg6
I0
sg7
I0
sg8
I0
sg9
I0
ss(I1
I2
I0
I1
I0
tp2912
(dp2913
g5
I0
sg6
I0
sg7
I0
sg8
I0
sg9
I0
ss(I2
I2
I2
I0
I1
tp2914
(dp2915
g5
I0
sg6
F0.0017838072768772365
sg7
F-41.999999999999986
sg8
F1.3515224291015158e-12
sg9
F1.8873530567048934e-53
ss(I2
I1
I0
I2
I1
tp2916
(dp2917
g5
I0
sg6
I0
sg7
I0
sg8
I0
sg9
I0
ss(I0
I2
I1
I2
I0
tp2918
(dp2919
g5
I0
sg6
I0
sg7
I0
sg8
I0
sg9
I0
ss(I0
I0
I1
I1
I0
tp2920
(dp2921
g5
I0
sg6
I0
sg7
I0
sg8
I0
sg9
I0
ss(I2
I2
I0
I0
I0
tp2922
(dp2923
g5
I0
sg6
I0
sg7
I0
sg8
I0
sg9
I0
ss(I0
I2
I1
I0
I1
tp2924
(dp2925
g5
I0
sg6
F-5.9999999631617715
sg7
F-35.99996424324408
sg8
F6.000000010516877
sg9
F1.3515421811819902e-12
ss(I2
I0
I0
I2
I0
tp2926
(dp2927
g5
I0
sg6
I0
sg7
I0
sg8
I0
sg9
I0
ss(I0
I0
I0
I1
I1
tp2928
(dp2929
g5
I0
sg6
I0
sg7
I0
sg8
I0
sg9
I0
ss(I0
I0
I1
I2
I0
tp2930
(dp2931
g5
I0
sg6
I0
sg7
I0
sg8
I0
sg9
I0
ss(I1
I0
I2
I0
I1
tp2932
(dp2933
g5
I0
sg6
F7.925676993678024e-11
sg7
F-35.96436409196122
sg8
F-5.999999999999998
sg9
F6.000773433561365
ssaa.