(dp0
(cnumpy.core.multiarray
scalar
p1
(cnumpy
dtype
p2
(S'S5'
p3
I0
I1
tp4
Rp5
(I3
S'|'
p6
NNNI5
I1
I0
tp7
bS'right'
p8
tp9
Rp10
S'red'
p11
I00
I00
I01
tp12
(dp13
S'forward'
p14
F-49.999999813735485
sNF0.0
sS'right'
p15
F-49.999999976716936
sS'left'
p16
F-49.99999995343387
ss(g1
(g2
(S'S5'
p17
I0
I1
tp18
Rp19
(I3
S'|'
p20
NNNI5
I1
I0
tp21
bS'right'
p22
tp23
Rp24
S'green'
p25
I01
I00
I01
tp26
(dp27
S'forward'
p28
F0.8773123403857228
sNF-5.0
sS'right'
p29
F6.0
sS'left'
p30
F-50.0
ss(g1
(g2
(S'S5'
p31
I0
I1
tp32
Rp33
(I3
S'|'
p34
NNNI5
I1
I0
tp35
bS'right'
p36
tp37
Rp38
S'green'
p39
I00
I00
I01
tp40
(dp41
g14
F-46.875
sNF-4.9951171875
sg15
F5.98828125
sg16
F-49.609375
ss(g1
(g2
(S'S4'
p42
I0
I1
tp43
Rp44
(I3
S'|'
p45
NNNI4
I1
I0
tp46
bS'left'
p47
tp48
Rp49
S'red'
p50
NI01
I00
tp51
(dp52
NF0.0
sg29
F-50.0
sg30
F-50.0
ss(g1
(g2
(S'S7'
p53
I0
I1
tp54
Rp55
(I3
S'|'
p56
NNNI7
I1
I0
tp57
bS'forward'
p58
tp59
Rp60
g25
I01
I01
I01
tp61
(dp62
g28
F6.0
sNF-5.0
sg29
F0.6972041477398159
sg30
F-0.6793807301531694
ss(g1
(g2
(S'S4'
p63
I0
I1
tp64
Rp65
(I3
S'|'
p66
NNNI4
I1
I0
tp67
bS'left'
p68
tp69
Rp70
g25
I01
I00
I01
tp71
(dp72
g28
F0.9046306384544749
sNF-4.999999999999432
sg29
F-0.9999999999999987
sg30
F-44.99999999999998
ss(g1
(g2
(S'S5'
p73
I0
I1
tp74
Rp75
(I3
S'|'
p76
NNNI5
I1
I0
tp77
bS'right'
p78
tp79
Rp80
S'green'
p81
I00
NI00
tp82
(dp83
S'forward'
p84
F-49.21875
sNF-4.98046875
sS'right'
p85
F-44.6484375
ss(g1
(g2
(S'S7'
p86
I0
I1
tp87
Rp88
(I3
S'|'
p89
NNNI7
I1
I0
tp90
bS'forward'
p91
tp92
Rp93
g25
I00
I01
I01
tp94
(dp95
g28
F-45.0
sNF-5.0
sg29
F-0.5429840106553456
sg30
F-0.9686508178710938
ss(g1
(g2
(S'S4'
p96
I0
I1
tp97
Rp98
(I3
S'|'
p99
NNNI4
I1
I0
tp100
bS'left'
p101
tp102
Rp103
g39
I00
I00
I01
tp104
(dp105
g14
F-43.75
sNF-4.375
sg15
F-0.9375
sg16
F-42.1875
ss(g1
(g2
(S'S5'
p106
I0
I1
tp107
Rp108
(I3
S'|'
p109
NNNI5
I1
I0
tp110
bS'right'
p111
tp112
Rp113
g50
I00
NI01
tp114
(dp115
g28
F-50.0
sNF0.0
sg29
F-50.0
ss(g1
(g2
(S'S5'
p116
I0
I1
tp117
Rp118
(I3
S'|'
p119
NNNI5
I1
I0
tp120
bS'right'
p121
tp122
Rp123
g11
I01
I00
I00
tp124
(dp125
g14
F-50.0
sNF0.0
sg15
F-50.0
sg16
F-50.0
ss(g1
(g2
(S'S4'
p126
I0
I1
tp127
Rp128
(I3
S'|'
p129
NNNI4
I1
I0
tp130
bS'left'
p131
tp132
Rp133
g25
NI01
I01
tp134
(dp135
NF-5.0
sg29
F-1.0
sg30
F6.0
ss(g1
(g2
(S'S5'
p136
I0
I1
tp137
Rp138
(I3
S'|'
p139
NNNI5
I1
I0
tp140
bS'right'
p141
tp142
Rp143
g50
NI01
I00
tp144
(dp145
NF0.0
sg29
F-50.0
sg30
F-50.0
ss(g1
(g2
(S'S7'
p146
I0
I1
tp147
Rp148
(I3
S'|'
p149
NNNI7
I1
I0
tp150
bS'forward'
p151
tp152
Rp153
g50
I01
NI00
tp154
(dp155
g28
F-50.0
sNF0.0
sg29
F-50.0
ss(g1
(g2
(S'S7'
p156
I0
I1
tp157
Rp158
(I3
S'|'
p159
NNNI7
I1
I0
tp160
bS'forward'
p161
tp162
Rp163
g11
I00
I01
I00
tp164
(dp165
g14
F-49.999999976716936
sNF0.0
sg15
F-49.999999813735485
sg16
F-49.99999990686774
ss(g1
(g2
(S'S5'
p166
I0
I1
tp167
Rp168
(I3
S'|'
p169
NNNI5
I1
I0
tp170
bS'right'
p171
tp172
Rp173
g39
I01
I00
I00
tp174
(dp175
g14
F0.9917717186413082
sNF-5.0
sg15
F-45.0
sg16
F-50.0
ss(g1
(g2
(S'S4'
p176
I0
I1
tp177
Rp178
(I3
S'|'
p179
NNNI4
I1
I0
tp180
bS'left'
p181
tp182
Rp183
g11
I00
I00
I00
tp184
(dp185
g14
F-49.9999999996362
sNF0.0
sg15
F-49.99999701976776
sg16
F-49.99999701976776
ss(g1
(g2
(S'S5'
p186
I0
I1
tp187
Rp188
(I3
S'|'
p189
NNNI5
I1
I0
tp190
bS'right'
p191
tp192
Rp193
g25
I01
NI01
tp194
(dp195
g28
F1.0
sNF-5.0
sg29
F5.999999999534339
ss(g1
(g2
(S'S7'
p196
I0
I1
tp197
Rp198
(I3
S'|'
p199
NNNI7
I1
I0
tp200
bS'forward'
p201
tp202
Rp203
g81
I00
I00
Ntp204
(dp205
g84
F-44.99995708465576
sNF-4.9951171875
sS'left'
p206
F-49.999237060546875
ss(g1
(g2
(S'S7'
p207
I0
I1
tp208
Rp209
(I3
S'|'
p210
NNNI7
I1
I0
tp211
bS'forward'
p212
tp213
Rp214
g25
I01
I01
I00
tp215
(dp216
g28
F6.0
sNF-5.0
sg29
F-50.0
sg30
F-0.26387143089261034
ss(g1
(g2
(S'S4'
p217
I0
I1
tp218
Rp219
(I3
S'|'
p220
NNNI4
I1
I0
tp221
bS'left'
p222
tp223
Rp224
g39
I01
I00
I00
tp225
(dp226
g14
F0.75
sNF-5.0
sg15
F-50.0
sg16
F-45.0
ss(g1
(g2
(S'S5'
p227
I0
I1
tp228
Rp229
(I3
S'|'
p230
NNNI5
I1
I0
tp231
bS'right'
p232
tp233
Rp234
g25
NI00
I01
tp235
(dp236
NF-5.0
sg29
F6.0
sg30
F-50.0
ss(g1
(g2
(S'S4'
p237
I0
I1
tp238
Rp239
(I3
S'|'
p240
NNNI4
I1
I0
tp241
bS'left'
p242
tp243
Rp244
S'red'
p245
I00
I00
Ntp246
(dp247
g84
F-49.21875
sNF0.0
sg206
F-49.98779296875
ss(g1
(g2
(S'S7'
p248
I0
I1
tp249
Rp250
(I3
S'|'
p251
NNNI7
I1
I0
tp252
bS'forward'
p253
tp254
Rp255
g50
I00
I01
Ntp256
(dp257
g28
F-50.0
sNF0.0
sg30
F-50.0
ss(g1
(g2
(S'S5'
p258
I0
I1
tp259
Rp260
(I3
S'|'
p261
NNNI5
I1
I0
tp262
bS'right'
p263
tp264
Rp265
g245
I00
NI00
tp266
(dp267
g84
F-49.8046875
sNF0.0
sg85
F-49.951171875
ss(g1
(g2
(S'S5'
p268
I0
I1
tp269
Rp270
(I3
S'|'
p271
NNNI5
I1
I0
tp272
bS'right'
p273
tp274
Rp275
g25
I00
NI01
tp276
(dp277
g28
F-50.0
sNF-5.0
sg29
F6.0
ss(g1
(g2
(S'S7'
p278
I0
I1
tp279
Rp280
(I3
S'|'
p281
NNNI7
I1
I0
tp282
bS'forward'
p283
tp284
Rp285
g50
I00
NI01
tp286
(dp287
g28
F-50.0
sNF0.0
sg29
F-50.0
ss(g1
(g2
(S'S4'
p288
I0
I1
tp289
Rp290
(I3
S'|'
p291
NNNI4
I1
I0
tp292
bS'left'
p293
tp294
Rp295
g25
NI01
I00
tp296
(dp297
NF-5.0
sg29
F-50.0
sg30
F6.0
ss(g1
(g2
(S'S7'
p298
I0
I1
tp299
Rp300
(I3
S'|'
p301
NNNI7
I1
I0
tp302
bS'forward'
p303
tp304
Rp305
g50
I01
I01
I01
tp306
(dp307
g28
F-50.0
sNF0.0
sg29
F-50.0
sg30
F-50.0
ss(g1
(g2
(S'S4'
p308
I0
I1
tp309
Rp310
(I3
S'|'
p311
NNNI4
I1
I0
tp312
bS'left'
p313
tp314
Rp315
g50
I01
I00
I01
tp316
(dp317
g28
F-50.0
sNF0.0
sg29
F-50.0
sg30
F-50.0
ss(g1
(g2
(S'S7'
p318
I0
I1
tp319
Rp320
(I3
S'|'
p321
NNNI7
I1
I0
tp322
bS'forward'
p323
tp324
Rp325
g50
I01
NI01
tp326
(dp327
g28
F-50.0
sNF0.0
sg29
F-50.0
ss(g1
(g2
(S'S4'
p328
I0
I1
tp329
Rp330
(I3
S'|'
p331
NNNI4
I1
I0
tp332
bS'left'
p333
tp334
Rp335
g11
NI00
I00
tp336
(dp337
NF0.0
sg15
F-50.0
sg16
F-49.99999999999716
ss(g1
(g2
(S'S7'
p338
I0
I1
tp339
Rp340
(I3
S'|'
p341
NNNI7
I1
I0
tp342
bS'forward'
p343
tp344
Rp345
g50
I00
I01
I01
tp346
(dp347
g28
F-50.0
sNF0.0
sg29
F-50.0
sg30
F-50.0
ss(g1
(g2
(S'S4'
p348
I0
I1
tp349
Rp350
(I3
S'|'
p351
NNNI4
I1
I0
tp352
bS'left'
p353
tp354
Rp355
g11
I00
I00
I01
tp356
(dp357
g14
F-49.993896484375
sNF0.0
sg15
F-49.99847412109375
sg16
F-49.99990463256836
ss(g1
(g2
(S'S7'
p358
I0
I1
tp359
Rp360
(I3
S'|'
p361
NNNI7
I1
I0
tp362
bS'forward'
p363
tp364
Rp365
g25
I00
I01
Ntp366
(dp367
g28
F-45.0
sNF-5.0
sg30
F0.9997405139574023
ss(g1
(g2
(S'S5'
p368
I0
I1
tp369
Rp370
(I3
S'|'
p371
NNNI5
I1
I0
tp372
bS'right'
p373
tp374
Rp375
g25
I01
NI00
tp376
(dp377
g28
F0.9999952018260814
sNF-5.0
sg29
F-45.0
ss(g1
(g2
(S'S4'
p378
I0
I1
tp379
Rp380
(I3
S'|'
p381
NNNI4
I1
I0
tp382
bS'left'
p383
tp384
Rp385
g25
I00
I01
Ntp386
(dp387
g28
F-50.0
sNF-5.0
sg30
F5.999999042600393
ss(g1
(g2
(S'S5'
p388
I0
I1
tp389
Rp390
(I3
S'|'
p391
NNNI5
I1
I0
tp392
bS'right'
p393
tp394
Rp395
g50
I01
I01
I00
tp396
(dp397
g28
F-50.0
sNF0.0
sg29
F-50.0
sg30
F-50.0
ss(g1
(g2
(S'S5'
p398
I0
I1
tp399
Rp400
(I3
S'|'
p401
NNNI5
I1
I0
tp402
bS'right'
p403
tp404
Rp405
g11
NI00
I00
tp406
(dp407
NF0.0
sg15
F-50.0
sg16
F-49.999999999954525
ss(g1
(g2
(S'S7'
p408
I0
I1
tp409
Rp410
(I3
S'|'
p411
NNNI7
I1
I0
tp412
bS'forward'
p413
tp414
Rp415
g25
I00
NI01
tp416
(dp417
g28
F-45.0
sNF-5.0
sg29
F0.9999999999954525
ss(g1
(g2
(S'S5'
p418
I0
I1
tp419
Rp420
(I3
S'|'
p421
NNNI5
I1
I0
tp422
bS'right'
p423
tp424
Rp425
g25
I01
I01
I00
tp426
(dp427
g28
F0.7943704895102915
sNF-4.999999999999999
sg29
F-44.99999999999872
sg30
F-0.9999999999775611
ss(g1
(g2
(S'S7'
p428
I0
I1
tp429
Rp430
(I3
S'|'
p431
NNNI7
I1
I0
tp432
bS'forward'
p433
tp434
Rp435
g245
I00
NI00
tp436
(dp437
g84
F-49.90234375
sNF0.0
sg85
F-49.609375
ss(g1
(g2
(S'S7'
p438
I0
I1
tp439
Rp440
(I3
S'|'
p441
NNNI7
I1
I0
tp442
bS'forward'
p443
tp444
Rp445
g25
I01
NI01
tp446
(dp447
g28
F5.9999999999999964
sNF-5.0
sg29
F0.9999997615668583
ss(g1
(g2
(S'S4'
p448
I0
I1
tp449
Rp450
(I3
S'|'
p451
NNNI4
I1
I0
tp452
bS'left'
p453
tp454
Rp455
g11
I01
I00
I00
tp456
(dp457
g14
F-50.0
sNF0.0
sg15
F-50.0
sg16
F-50.0
ss(g1
(g2
(S'S4'
p458
I0
I1
tp459
Rp460
(I3
S'|'
p461
NNNI4
I1
I0
tp462
bS'left'
p463
tp464
Rp465
g50
I01
I00
Ntp466
(dp467
g28
F-50.0
sNF0.0
sg30
F-50.0
ss(g1
(g2
(S'S4'
p468
I0
I1
tp469
Rp470
(I3
S'|'
p471
NNNI4
I1
I0
tp472
bS'left'
p473
tp474
Rp475
g50
NI00
I01
tp476
(dp477
NF0.0
sg29
F-50.0
sg30
F-50.0
ss(g1
(g2
(S'S7'
p478
I0
I1
tp479
Rp480
(I3
S'|'
p481
NNNI7
I1
I0
tp482
bS'forward'
p483
tp484
Rp485
g39
I01
I00
I00
tp486
(dp487
g14
F6.0
sNF-5.0
sg15
F-50.0
sg16
F-50.0
ss(g1
(g2
(S'S4'
p488
I0
I1
tp489
Rp490
(I3
S'|'
p491
NNNI4
I1
I0
tp492
bS'left'
p493
tp494
Rp495
g25
I01
I01
I00
tp496
(dp497
g28
F-0.15834423755712035
sNF-5.0
sg29
F-50.0
sg30
F6.0
ss(g28
g25
I01
NNtp498
(dp499
g28
F2.075197586154265
sNF-5.0
ss(g1
(g2
(S'S5'
p500
I0
I1
tp501
Rp502
(I3
S'|'
p503
NNNI5
I1
I0
tp504
bS'right'
p505
tp506
Rp507
g50
I00
I01
I01
tp508
(dp509
g28
F-50.0
sNF0.0
sg29
F-50.0
sg30
F-50.0
ss(g1
(g2
(S'S5'
p510
I0
I1
tp511
Rp512
(I3
S'|'
p513
NNNI5
I1
I0
tp514
bS'right'
p515
tp516
Rp517
g50
I01
NI01
tp518
(dp519
g28
F-50.0
sNF0.0
sg29
F-50.0
ss(g1
(g2
(S'S5'
p520
I0
I1
tp521
Rp522
(I3
S'|'
p523
NNNI5
I1
I0
tp524
bS'right'
p525
tp526
Rp527
g39
NI00
I00
tp528
(dp529
NF-4.999995231628418
sg15
F-44.99999966472387
sg16
F-49.99999850988388
ss(g1
(g2
(S'S5'
p530
I0
I1
tp531
Rp532
(I3
S'|'
p533
NNNI5
I1
I0
tp534
bS'right'
p535
tp536
Rp537
g50
I01
I01
I01
tp538
(dp539
g28
F-50.0
sNF0.0
sg29
F-50.0
sg30
F-50.0
ss(g1
(g2
(S'S4'
p540
I0
I1
tp541
Rp542
(I3
S'|'
p543
NNNI4
I1
I0
tp544
bS'left'
p545
tp546
Rp547
g39
NI00
I00
tp548
(dp549
NF-4.999995231628418
sg15
F-49.999999813735485
sg16
F-44.99931335449219
ss(g1
(g2
(S'S5'
p550
I0
I1
tp551
Rp552
(I3
S'|'
p553
NNNI5
I1
I0
tp554
bS'right'
p555
tp556
Rp557
g50
NI00
I01
tp558
(dp559
NF0.0
sg29
F-50.0
sg30
F-50.0
ss(g1
(g2
(S'S5'
p560
I0
I1
tp561
Rp562
(I3
S'|'
p563
NNNI5
I1
I0
tp564
bS'right'
p565
tp566
Rp567
g25
I00
I01
I01
tp568
(dp569
g28
F-50.0
sNF-5.0
sg29
F6.0
sg30
F-1.0
ss(g1
(g2
(S'S7'
p570
I0
I1
tp571
Rp572
(I3
S'|'
p573
NNNI7
I1
I0
tp574
bS'forward'
p575
tp576
Rp577
g81
I00
NI00
tp578
(dp579
g84
F-44.9945068359375
sNF-4.921875
sg85
F-48.4375
ss(g1
(g2
(S'S7'
p580
I0
I1
tp581
Rp582
(I3
S'|'
p583
NNNI7
I1
I0
tp584
bS'forward'
p585
tp586
Rp587
g50
I01
I01
I00
tp588
(dp589
g28
F-50.0
sNF0.0
sg29
F-50.0
sg30
F-50.0
ss(g1
(g2
(S'S5'
p590
I0
I1
tp591
Rp592
(I3
S'|'
p593
NNNI5
I1
I0
tp594
bS'right'
p595
tp596
Rp597
g25
I01
I01
I01
tp598
(dp599
g28
F0.8026503412064343
sNF-5.0
sg29
F6.0
sg30
F-1.0
ss(g1
(g2
(S'S7'
p600
I0
I1
tp601
Rp602
(I3
S'|'
p603
NNNI7
I1
I0
tp604
bS'forward'
p605
tp606
Rp607
g245
I00
I00
Ntp608
(dp609
g84
F-49.99999999854481
sNF0.0
sg206
F-49.99997615814209
ss(g1
(g2
(S'S7'
p610
I0
I1
tp611
Rp612
(I3
S'|'
p613
NNNI7
I1
I0
tp614
bS'forward'
p615
tp616
Rp617
g39
I00
I00
I01
tp618
(dp619
g14
F-44.989013671875
sNF-4.99755859375
sg15
F0.8671875
sg16
F-49.609375
ss(g1
(g2
(S'S4'
p620
I0
I1
tp621
Rp622
(I3
S'|'
p623
NNNI4
I1
I0
tp624
bS'left'
p625
tp626
Rp627
g25
I00
I01
I01
tp628
(dp629
g28
F-50.0
sNF-5.0
sg29
F-1.0
sg30
F6.0
ss(g1
(g2
(S'S7'
p630
I0
I1
tp631
Rp632
(I3
S'|'
p633
NNNI7
I1
I0
tp634
bS'forward'
p635
tp636
Rp637
g25
I01
I00
I01
tp638
(dp639
g28
F6.0
sNF-4.99999999998181
sg29
F-0.026909190140583794
sg30
F-49.99999999999996
ss(g1
(g2
(S'S4'
p640
I0
I1
tp641
Rp642
(I3
S'|'
p643
NNNI4
I1
I0
tp644
bS'left'
p645
tp646
Rp647
g25
I01
I01
I01
tp648
(dp649
g28
F0.9976761329219082
sNF-5.0
sg29
F-1.0
sg30
F6.0
ss(g1
(g2
(S'S4'
p650
I0
I1
tp651
Rp652
(I3
S'|'
p653
NNNI4
I1
I0
tp654
bS'left'
p655
tp656
Rp657
g11
I00
I01
I00
tp658
(dp659
g14
F-49.99847412109375
sNF0.0
sg15
F-49.999237060546875
sg16
F-49.999237060546875
ss(g1
(g2
(S'S5'
p660
I0
I1
tp661
Rp662
(I3
S'|'
p663
NNNI5
I1
I0
tp664
bS'right'
p665
tp666
Rp667
g11
I00
I01
I00
tp668
(dp669
g14
F-49.99999999708962
sNF0.0
sg15
F-49.99999925494194
sg16
F-49.99999990686774
ss(g1
(g2
(S'S5'
p670
I0
I1
tp671
Rp672
(I3
S'|'
p673
NNNI5
I1
I0
tp674
bS'right'
p675
tp676
Rp677
g50
I01
NI00
tp678
(dp679
g28
F-50.0
sNF0.0
sg29
F-50.0
ss(g1
(g2
(S'S4'
p680
I0
I1
tp681
Rp682
(I3
S'|'
p683
NNNI4
I1
I0
tp684
bS'left'
p685
tp686
Rp687
g25
NI00
I01
tp688
(dp689
NF-5.0
sg29
F-1.0
sg30
F-45.0
ss(g1
(g2
(S'S7'
p690
I0
I1
tp691
Rp692
(I3
S'|'
p693
NNNI7
I1
I0
tp694
bS'forward'
p695
tp696
Rp697
g11
I01
I00
I00
tp698
(dp699
g14
F-50.0
sNF0.0
sg15
F-50.0
sg16
F-50.0
ss(g1
(g2
(S'S5'
p700
I0
I1
tp701
Rp702
(I3
S'|'
p703
NNNI5
I1
I0
tp704
bS'right'
p705
tp706
Rp707
g39
I00
I01
I00
tp708
(dp709
g14
F-49.9755859375
sNF-4.99755859375
sg15
F-43.59375
sg16
F-0.998046875
ss(g1
(g2
(S'S4'
p710
I0
I1
tp711
Rp712
(I3
S'|'
p713
NNNI4
I1
I0
tp714
bS'left'
p715
tp716
Rp717
g50
I01
I01
I00
tp718
(dp719
g28
F-50.0
sNF0.0
sg29
F-50.0
sg30
F-50.0
ss(g1
(g2
(S'S7'
p720
I0
I1
tp721
Rp722
(I3
S'|'
p723
NNNI7
I1
I0
tp724
bS'forward'
p725
tp726
Rp727
g25
I01
NI00
tp728
(dp729
g28
F6.0
sNF-5.0
sg29
F-50.0
ss(g1
(g2
(S'S5'
p730
I0
I1
tp731
Rp732
(I3
S'|'
p733
NNNI5
I1
I0
tp734
bS'right'
p735
tp736
Rp737
g25
NI01
I01
tp738
(dp739
NF-5.0
sg29
F5.999999999985432
sg30
F-1.0
ss(g1
(g2
(S'S7'
p740
I0
I1
tp741
Rp742
(I3
S'|'
p743
NNNI7
I1
I0
tp744
bS'forward'
p745
tp746
Rp747
g25
I01
I01
Ntp748
(dp749
g28
F6.0
sNF-5.0
sg30
F0.9732041353235147
ss(g1
(g2
(S'S7'
p750
I0
I1
tp751
Rp752
(I3
S'|'
p753
NNNI7
I1
I0
tp754
bS'forward'
p755
tp756
Rp757
g39
I00
I00
I00
tp758
(dp759
g14
F-44.82421875
sNF-4.998779296875
sg15
F-49.8046875
sg16
F-49.21875
ss(g1
(g2
(S'S4'
p760
I0
I1
tp761
Rp762
(I3
S'|'
p763
NNNI4
I1
I0
tp764
bS'left'
p765
tp766
Rp767
g39
I00
I01
I00
tp768
(dp769
g14
F-48.4375
sNF-4.84375
sg15
F-43.75
sg16
F5.8125
ss(g1
(g2
(S'S4'
p770
I0
I1
tp771
Rp772
(I3
S'|'
p773
NNNI4
I1
I0
tp774
bS'left'
p775
tp776
Rp777
g50
I01
I01
Ntp778
(dp779
g28
F-50.0
sNF0.0
sg30
F-50.0
ss(g1
(g2
(S'S7'
p780
I0
I1
tp781
Rp782
(I3
S'|'
p783
NNNI7
I1
I0
tp784
bS'forward'
p785
tp786
Rp787
g50
I01
I00
Ntp788
(dp789
g28
F-50.0
sNF0.0
sg30
F-50.0
ss(g1
(g2
(S'S7'
p790
I0
I1
tp791
Rp792
(I3
S'|'
p793
NNNI7
I1
I0
tp794
bS'forward'
p795
tp796
Rp797
g11
I00
I00
I01
tp798
(dp799
g14
F-49.99999925494194
sNF0.0
sg15
F-49.999999994179234
sg16
F-49.999999976716936
ss(g1
(g2
(S'S4'
p800
I0
I1
tp801
Rp802
(I3
S'|'
p803
NNNI4
I1
I0
tp804
bS'left'
p805
tp806
Rp807
g50
I00
I01
I01
tp808
(dp809
g28
F-50.0
sNF0.0
sg29
F-50.0
sg30
F-50.0
ss(g1
(g2
(S'S4'
p810
I0
I1
tp811
Rp812
(I3
S'|'
p813
NNNI4
I1
I0
tp814
bS'left'
p815
tp816
Rp817
g39
I00
I00
Ntp818
(dp819
g14
F-49.951171875
sNF-4.99969482421875
sg16
F-44.989013671875
ss(g1
(g2
(S'S7'
p820
I0
I1
tp821
Rp822
(I3
S'|'
p823
NNNI7
I1
I0
tp824
bS'forward'
p825
tp826
Rp827
g50
I01
I00
I01
tp828
(dp829
g28
F-50.0
sNF0.0
sg29
F-50.0
sg30
F-50.0
ss(g1
(g2
(S'S4'
p830
I0
I1
tp831
Rp832
(I3
S'|'
p833
NNNI4
I1
I0
tp834
bS'left'
p835
tp836
Rp837
g50
I01
I01
I01
tp838
(dp839
g28
F-50.0
sNF0.0
sg29
F-50.0
sg30
F-50.0
ss(g1
(g2
(S'S7'
p840
I0
I1
tp841
Rp842
(I3
S'|'
p843
NNNI7
I1
I0
tp844
bS'forward'
p845
tp846
Rp847
g25
I01
I00
Ntp848
(dp849
g28
F6.0
sNF-5.0
sg30
F-50.0
ss(g1
(g2
(S'S5'
p850
I0
I1
tp851
Rp852
(I3
S'|'
p853
NNNI5
I1
I0
tp854
bS'right'
p855
tp856
Rp857
g25
NI01
I00
tp858
(dp859
NF-5.0
sg29
F-45.0
sg30
F-1.0
ss(g1
(g2
(S'S4'
p860
I0
I1
tp861
Rp862
(I3
S'|'
p863
NNNI4
I1
I0
tp864
bS'left'
p865
tp866
Rp867
g25
I01
I00
Ntp868
(dp869
g28
F-0.7753981398724755
sNF-5.0
sg30
F-45.0
ss(g1
(g2
(S'S5'
p870
I0
I1
tp871
Rp872
(I3
S'|'
p873
NNNI5
I1
I0
tp874
bS'right'
p875
tp876
Rp877
g11
I00
I00
I00
tp878
(dp879
g14
F-49.99999998835847
sNF0.0
sg15
F-49.99999962747097
sg16
F-49.999999994179234
ss(g1
(g2
(S'S5'
p880
I0
I1
tp881
Rp882
(I3
S'|'
p883
NNNI5
I1
I0
tp884
bS'right'
p885
tp886
Rp887
g39
I00
I00
I00
tp888
(dp889
g14
F-49.21875
sNF-4.999961853027344
sg15
F-44.9560546875
sg16
F-49.9755859375
ss(g1
(g2
(S'S4'
p890
I0
I1
tp891
Rp892
(I3
S'|'
p893
NNNI4
I1
I0
tp894
bS'left'
p895
tp896
Rp897
g50
NI01
I01
tp898
(dp899
NF0.0
sg29
F-50.0
sg30
F-50.0
ss(g1
(g2
(S'S7'
p900
I0
I1
tp901
Rp902
(I3
S'|'
p903
NNNI7
I1
I0
tp904
bS'forward'
p905
tp906
Rp907
g11
I00
I00
I00
tp908
(dp909
g14
F-49.99999999997726
sNF0.0
sg15
F-49.99999998835847
sg16
F-49.999999813735485
ss(g1
(g2
(S'S7'
p910
I0
I1
tp911
Rp912
(I3
S'|'
p913
NNNI7
I1
I0
tp914
bS'forward'
p915
tp916
Rp917
g50
I01
I01
Ntp918
(dp919
g28
F-50.0
sNF0.0
sg30
F-50.0
ss(g1
(g2
(S'S7'
p920
I0
I1
tp921
Rp922
(I3
S'|'
p923
NNNI7
I1
I0
tp924
bS'forward'
p925
tp926
Rp927
g39
I00
I01
I00
tp928
(dp929
g14
F-44.912109375
sNF-4.9951171875
sg15
F-49.9969482421875
sg16
F0.2501220703125
ss(g1
(g2
(S'S4'
p930
I0
I1
tp931
Rp932
(I3
S'|'
p933
NNNI4
I1
I0
tp934
bS'left'
p935
tp936
Rp937
g39
I00
I00
I00
tp938
(dp939
g14
F-49.98779296875
sNF-4.921875
sg15
F-49.609375
sg16
F-44.82421875
ss(g1
(g2
(S'S4'
p940
I0
I1
tp941
Rp942
(I3
S'|'
p943
NNNI4
I1
I0
tp944
bS'left'
p945
tp946
Rp947
g25
I01
I01
Ntp948
(dp949
g28
F-0.31702629572605
sNF-5.0
sg30
F5.999999701976776
ss(g1
(g2
(S'S5'
p950
I0
I1
tp951
Rp952
(I3
S'|'
p953
NNNI5
I1
I0
tp954
bS'right'
p955
tp956
Rp957
g50
I01
I00
I01
tp958
(dp959
g28
F-50.0
sNF0.0
sg29
F-50.0
sg30
F-50.0
ss(g1
(g2
(S'S4'
p960
I0
I1
tp961
Rp962
(I3
S'|'
p963
NNNI4
I1
I0
tp964
bS'left'
p965
tp966
Rp967
g50
I00
I01
Ntp968
(dp969
g28
F-50.0
sNF0.0
sg30
F-50.0
ss(g1
(g2
(S'S5'
p970
I0
I1
tp971
Rp972
(I3
S'|'
p973
NNNI5
I1
I0
tp974
bS'right'
p975
tp976
Rp977
g50
NI01
I01
tp978
(dp979
NF0.0
sg29
F-50.0
sg30
F-50.0
ss.